
C:\Users\hwsin\Desktop\PBKDF2\Debug\PBKDF2.axf:     file format elf32-littlearm
C:\Users\hwsin\Desktop\PBKDF2\Debug\PBKDF2.axf
architecture: armv6s-m, flags 0x00000112:
EXEC_P, HAS_SYMS, D_PAGED
start address 0x000000d5

Program Header:
    LOAD off    0x00010000 vaddr 0x00000000 paddr 0x00000000 align 2**16
         filesz 0x00004fa4 memsz 0x00004fa4 flags r-x
    LOAD off    0x0001f080 vaddr 0x1ffff080 paddr 0x00004fa4 align 2**16
         filesz 0x00000008 memsz 0x00000008 flags rw-
    LOAD off    0x0002f000 vaddr 0x1ffff000 paddr 0x1ffff000 align 2**16
         filesz 0x00000000 memsz 0x00002604 flags rw-
private flags = 5000200: [Version5 EABI] [soft-float ABI]

Sections:
Idx Name          Size      VMA       LMA       File off  Algn
  0 .text         00004fa4  00000000  00000000  00010000  2**2
                  CONTENTS, ALLOC, LOAD, READONLY, CODE
  1 .data         00000008  1ffff080  00004fa4  0001f080  2**2
                  CONTENTS, ALLOC, LOAD, DATA
  2 .bss          0000017c  1ffff088  1ffff088  0002f000  2**2
                  ALLOC
  3 .mtb_buffer_default 00000080  1ffff000  1ffff000  0002f000  2**7
                  ALLOC
  4 .uninit_RESERVED 00000000  1ffff080  1ffff080  0001f088  2**2
                  CONTENTS
  5 .noinit       00000000  1ffff204  1ffff204  0001f088  2**2
                  CONTENTS
  6 .heap         00000400  1ffff204  1ffff204  0002f000  2**2
                  ALLOC
  7 .heap2stackfill 00002000  1ffff604  1ffff604  0002f000  2**0
                  ALLOC
  8 .stack        00000000  20001000  20001000  0001f088  2**2
                  CONTENTS
  9 .debug_info   0000889b  00000000  00000000  0001f088  2**0
                  CONTENTS, READONLY, DEBUGGING
 10 .debug_abbrev 00001cc7  00000000  00000000  00027923  2**0
                  CONTENTS, READONLY, DEBUGGING
 11 .debug_aranges 00000850  00000000  00000000  000295ea  2**0
                  CONTENTS, READONLY, DEBUGGING
 12 .debug_ranges 00000738  00000000  00000000  00029e3a  2**0
                  CONTENTS, READONLY, DEBUGGING
 13 .debug_macro  00008f5d  00000000  00000000  0002a572  2**0
                  CONTENTS, READONLY, DEBUGGING
 14 .debug_line   0000552a  00000000  00000000  000334cf  2**0
                  CONTENTS, READONLY, DEBUGGING
 15 .debug_str    0003605d  00000000  00000000  000389f9  2**0
                  CONTENTS, READONLY, DEBUGGING
 16 .comment      00000079  00000000  00000000  0006ea56  2**0
                  CONTENTS, READONLY
 17 .ARM.attributes 0000002a  00000000  00000000  0006eacf  2**0
                  CONTENTS, READONLY
 18 .debug_frame  00001a20  00000000  00000000  0006eafc  2**2
                  CONTENTS, READONLY, DEBUGGING
SYMBOL TABLE:
00000000 l    d  .text	00000000 .text
1ffff080 l    d  .data	00000000 .data
1ffff088 l    d  .bss	00000000 .bss
1ffff000 l    d  .mtb_buffer_default	00000000 .mtb_buffer_default
1ffff080 l    d  .uninit_RESERVED	00000000 .uninit_RESERVED
1ffff204 l    d  .noinit	00000000 .noinit
1ffff204 l    d  .heap	00000000 .heap
1ffff604 l    d  .heap2stackfill	00000000 .heap2stackfill
20001000 l    d  .stack	00000000 .stack
00000000 l    d  .debug_info	00000000 .debug_info
00000000 l    d  .debug_abbrev	00000000 .debug_abbrev
00000000 l    d  .debug_aranges	00000000 .debug_aranges
00000000 l    d  .debug_ranges	00000000 .debug_ranges
00000000 l    d  .debug_macro	00000000 .debug_macro
00000000 l    d  .debug_line	00000000 .debug_line
00000000 l    d  .debug_str	00000000 .debug_str
00000000 l    d  .comment	00000000 .comment
00000000 l    d  .ARM.attributes	00000000 .ARM.attributes
00000000 l    d  .debug_frame	00000000 .debug_frame
00000000 l    df *ABS*	00000000 startup_mkl25z4.c
00000000 l    df *ABS*	00000000 fsl_debug_console.c
00003924 l     F .text	00000040 UART_EnableTx
00003964 l     F .text	00000040 UART_EnableRx
000039a4 l     F .text	00000040 LPSCI_EnableTx
000039e4 l     F .text	00000040 LPSCI_EnableRx
1ffff088 l     O .bss	00000010 s_debugConsole
00000000 l    df *ABS*	00000000 isha.c
00003a24 l     F .text	000000e2 ISHAProcessMessageBlock
00003b06 l     F .text	000000d8 ISHAPadMessage
00000000 l    df *ABS*	00000000 main.c
000005b8 l     F .text	00000164 time_pbkdf2_hmac_isha
000042e4 l     O .text	00000016 __FUNCTION__.5492
0000071c l     F .text	00000060 run_tests
00000000 l    df *ABS*	00000000 pbkdf2.c
000007c8 l     F .text	00000150 F
00000000 l    df *ABS*	00000000 pbkdf2_test.c
000009e4 l     F .text	00000070 hexdigit_to_int
00004cc0 l     O .text	0000000a __FUNCTION__.4263
00004ccc l     O .text	0000000f __FUNCTION__.4291
00004cdc l     O .text	00000016 __FUNCTION__.4312
00000000 l    df *ABS*	00000000 semihost_hardfault.c
00000fd6 l       .text	00000000 _MSP
00000fda l       .text	00000000 _process
00000fe6 l       .text	00000000 _semihost_return
00000000 l    df *ABS*	00000000 ticktime.c
00000ff8 l     F .text	0000002c NVIC_EnableIRQ
00001024 l     F .text	00000030 NVIC_ClearPendingIRQ
00001054 l     F .text	000000dc NVIC_SetPriority
1ffff098 l     O .bss	00000004 g_now
1ffff09c l     O .bss	00000004 g_timer
00000000 l    df *ABS*	00000000 fsl_clock.c
000011e8 l     F .text	00000034 CLOCK_SetEr32kClock
0000121c l     F .text	00000038 CLOCK_SetPllFllSelClock
00003e80 l     F .text	0000003e OSC_SetExtRefClkConfig
00003ebe l     F .text	00000042 OSC_SetCapLoad
1ffff080 l     O .data	00000004 s_slowIrcFreq
00001254 l     F .text	00000028 CLOCK_GetMcgExtClkFreq
0000127c l     F .text	000000a8 CLOCK_GetFllExtRefClkFreq
00001324 l     F .text	0000002c CLOCK_GetFllRefClkFreq
00003f00 l     F .text	00000010 CLOCK_GetPll0RefFreq
00001350 l     F .text	0000004c CLOCK_GetOscRangeFromFreq
00004d88 l     O .text	00000010 fllFactorTable.5210
00000000 l    df *ABS*	00000000 fsl_lpsci.c
00001880 l     F .text	00000034 CLOCK_EnableClock
1ffff0a4 l     O .bss	00000004 s_lpsciHandle
1ffff0a8 l     O .bss	00000004 s_lpsciIsr
00000000 l    df *ABS*	00000000 fsl_uart.c
00001d5c l     F .text	00000034 CLOCK_EnableClock
1ffff0ac l     O .bss	0000000c s_uartHandle
00004e60 l     O .text	0000000c s_uartBases
00004e6c l     O .text	0000000c s_uartClock
1ffff0b8 l     O .bss	00000004 s_uartIsr
00000000 l    df *ABS*	00000000 board.c
000020e8 l     F .text	00000038 CLOCK_SetLpsci0Clock
00000000 l    df *ABS*	00000000 clock_config.c
00002150 l     F .text	00000020 CLOCK_SetSimSafeDivs
00002170 l     F .text	0000001c CLOCK_SetXtal0Freq
0000218c l     F .text	0000003c CLOCK_CONFIG_SetFllExtRefDiv
00000000 l    df *ABS*	00000000 pin_mux.c
0000222c l     F .text	00000034 CLOCK_EnableClock
00002260 l     F .text	00000040 PORT_SetPinMux
00000000 l    df *ABS*	00000000 system_MKL25Z4.c
00000000 l    df *ABS*	00000000 _cr_assert.c
00000000 l    df *ABS*	00000000 _deferredlazyseek.c
00000000 l    df *ABS*	00000000 _fflush.c
00000000 l    df *ABS*	00000000 _writebuf.c
00000000 l    df *ABS*	00000000 alloc.c
00000000 l    df *ABS*	00000000 fseek.c
00000000 l    df *ABS*	00000000 ftell.c
00000000 l    df *ABS*	00000000 initio.c
00000000 l    df *ABS*	00000000 printf.c
0000404c l     F .text	00000004 no_fp_display
00000000 l    df *ABS*	00000000 setvbuf.c
00000000 l    df *ABS*	00000000 stdlib.c
00000000 l    df *ABS*	00000000 strlen.c
00000000 l    df *ABS*	00000000 _cr_sbrk.c
00000000 l    df *ABS*	00000000 _fdopen.c
00000000 l    df *ABS*	00000000 fclose.c
00000000 l    df *ABS*	00000000 fflush.c
00000000 l    df *ABS*	00000000 _cr_check_heap.c
00000000 l    df *ABS*	00000000 _do_fflush.c
00000000 l    df *ABS*	00000000 peripherals.c
00000000 l    df *ABS*	00000000 _cr__main.c
00000000 l    df *ABS*	00000000 __sys_appexit.c
00000000 l    df *ABS*	00000000 memcpy.c
00000000 l    df *ABS*	00000000 memset.c
00000000 l    df *ABS*	00000000 fputs.c
00000000 l    df *ABS*	00000000 remove.c
00000000 l    df *ABS*	00000000 division_32.o
000040ac l       .text	00000000 idiv_negative
000040d0 l       .text	00000000 idiv_divzero
00004078 l       .text	00000000 div_search4a
00004074 l       .text	00000000 div_search4
00004084 l       .text	00000000 div_search1a
00004080 l       .text	00000000 div_search1
0000408c l       .text	00000000 div_loop1a
0000408a l       .text	00000000 div_loop1
000040a0 l       .text	00000000 div1
00004090 l       .text	00000000 div2
0000409a l       .text	00000000 div_loop2
000040b2 l       .text	00000000 idiv_neg1
000040b8 l       .text	00000000 idiv_neg2
000040c2 l       .text	00000000 idiv_sign
000040c8 l       .text	00000000 idiv_sign1
000040ce l       .text	00000000 idiv_ret
00000000 l    df *ABS*	00000000 division_idiv0.o
00000000 l    df *ABS*	00000000 llong.o
00000000 l    df *ABS*	00000000 memcpy.o
00004122 l       .text	00000000 copy1_start
00004118 l       .text	00000000 copy4
00004132 l       .text	00000000 copy1_ret
0000412a l       .text	00000000 copy1
00004150 l       .text	00000000 memset1
0000414a l       .text	00000000 memset4
0000415c l       .text	00000000 memset1_ret
00004154 l       .text	00000000 memset1a
00000000 l    df *ABS*	00000000 thumb1_switch_helpers.o
00000000 l    df *ABS*	00000000 __sys_close.c
00000000 l    df *ABS*	00000000 __sys_flen.c
00000000 l    df *ABS*	00000000 __sys_istty.c
00000000 l    df *ABS*	00000000 __sys_remove.c
00000000 l    df *ABS*	00000000 __sys_seek.c
00000000 l    df *ABS*	00000000 __sys_tmpnam.c
00000000 l    df *ABS*	00000000 __ciob.c
00000000 l    df *ABS*	00000000 mtb.c
00003fd4 g     F .text	0000000c __main
00000400 g       .text	00000000 __FLASH_CONFIG_START__
00000000 g     O .text	000000c0 __Vectors
00002350 g     F .text	00000040 _deferredlazyseek
0000014c  w    F .text	00000002 PIT_DriverIRQHandler
0000014c  w    F .text	00000002 Reserved39_DriverIRQHandler
00001c2c g     F .text	0000004c LPSCI_WriteBlocking
000000c0 g       .text	00000000 __section_table_start
00003fe0  w    F .text	00000002 __exit
0000018e  w    F .text	00000008 I2C0_IRQHandler
0000418e g     F .text	00000006 __sys_tmpnam
00000c90 g     F .text	00000110 test_hmac_isha
0000014c  w    F .text	00000002 DMA0_DriverIRQHandler
00002120 g     F .text	00000030 BOARD_InitDebugConsole
00000fc8 g     F .text	0000002a HardFault_Handler
0000014c  w    F .text	00000002 SPI1_DriverIRQHandler
00000000 g       *ABS*	00000000 __vectors_start__
00000400 g       *ABS*	00000000 _HeapSize
0000014c  w    F .text	00000002 LPTMR0_DriverIRQHandler
00001198 g     F .text	00000018 SysTick_Handler
000035e0 g     F .text	00000070 _vsnprintf
000018fc g     F .text	00000258 LPSCI_Init
00000918 g     F .text	000000cc pbkdf2_hmac_isha
00000148  w    F .text	00000002 PendSV_Handler
00000142  w    F .text	00000002 NMI_Handler
00004fa4 g       .bss	00000000 __exidx_end
000000cc g       .text	00000000 __data_section_table_end
000018b4 g     F .text	00000048 LPSCI_GetInstance
00000196  w    F .text	00000008 I2C1_IRQHandler
000001b6  w    F .text	00000008 UART1_IRQHandler
00002390 g     F .text	00000150 __flsbuf
0000015e  w    F .text	00000008 DMA2_IRQHandler
0000014c  w    F .text	00000002 TPM2_DriverIRQHandler
20003000 g       *ABS*	00000000 __top_SRAM
000001d6  w    F .text	00000008 TPM0_IRQHandler
1ffff200 g     O .bss	00000004 errno
00004fa4 g       .text	00000000 _etext
000011b0 g     F .text	0000001c reset_timer
00001de4 g     F .text	000001e0 UART_Init
00000186  w    F .text	00000008 LLWU_IRQHandler
0000014c  w    F .text	00000002 TSI0_DriverIRQHandler
00003c4a g     F .text	0000009c ISHAInput
0000014c  w    F .text	00000002 RTC_Seconds_DriverIRQHandler
0000021e  w    F .text	00000008 TSI0_IRQHandler
00002000 g       *ABS*	00000000 _StackSize
000001ae  w    F .text	00000008 UART0_IRQHandler
00003fae g     F .text	0000000e BOARD_InitBootClocks
00000132 g     F .text	00000010 bss_init
0000014c  w    F .text	00000002 LLWU_DriverIRQHandler
00003fe2 g     F .text	00000008 memcpy
000036a0 g     F .text	0000004c setvbuf
00001b54 g     F .text	00000044 LPSCI_GetDefaultConfig
1ffff204 g       .noinit	00000000 _noinit
0000014c  w    F .text	00000002 MCG_DriverIRQHandler
1ffff084 g     O .data	00000004 SystemCoreClock
00020000 g       *ABS*	00000000 __top_PROGRAM_FLASH
000001c6  w    F .text	00000008 ADC0_IRQHandler
000025a8 g     F .text	000000d0 malloc
00004050 g     F .text	00000012 remove
00000206  w    F .text	00000008 Reserved39_IRQHandler
20003000 g       *ABS*	00000000 __top_RAM
00000a54 g     F .text	0000023c test_isha
0000410a g     F .text	0000002c __aeabi_memcpy
000020a0 g     F .text	00000024 UART1_DriverIRQHandler
00004176 g     F .text	00000006 __sys_flen
000001a6  w    F .text	00000008 SPI1_IRQHandler
0000014c  w    F .text	00000002 FTFA_DriverIRQHandler
0000014c  w    F .text	00000002 IntDefaultHandler
0000014c  w    F .text	00000002 USB0_DriverIRQHandler
1ffff604 g       .heap	00000000 _pvHeapLimit
00003884 g     F .text	00000044 fflush
0000014c  w    F .text	00000002 DAC0_DriverIRQHandler
00000246  w    F .text	00000008 PORTD_IRQHandler
00004fa4 g       .bss	00000000 __exidx_start
00002304 g     F .text	0000004c __assertion_failed
0000410a g     F .text	0000002c __aeabi_memcpy4
000040dc g     F .text	0000002e __aeabi_lmul
000037b4 g     F .text	00000074 _fdopen
00004136 g     F .text	0000002a __aeabi_lowlevel_memset
1ffff000 g       *ABS*	00000000 __base_SRAM
00003770 g     F .text	00000044 _sbrk
0000014c  w    F .text	00000002 LVD_LVW_DriverIRQHandler
000011cc g     F .text	0000001c get_timer
0000014c  w    F .text	00000002 TPM0_DriverIRQHandler
000001e6  w    F .text	00000008 TPM2_IRQHandler
00001810 g     F .text	00000070 CLOCK_BootToPeeMode
000000c0 g       .text	00000000 __data_section_table
00004f38 g     O .text	00000004 __num_Ciob_streams
00000410 g       .text	00000000 __FLASH_CONFIG_END__
000001ee  w    F .text	00000008 RTC_IRQHandler
1ffff204 g       .bss	00000000 _ebss
00003bde g     F .text	0000006c ISHAResult
00004fac g       *ABS*	00000000 _image_size
000028a0 g     F .text	00000d40 __vfprintf
0000014c  w    F .text	00000002 Reserved20_DriverIRQHandler
0000014c  w    F .text	00000002 DMA3_DriverIRQHandler
00001760 g     F .text	000000b0 CLOCK_SetPbeMode
1ffff170 g     O .bss	00000084 _exitvector
00000120 g     F .text	00000012 data_init
0000410a g     F .text	0000002c __aeabi_memcpy8
00002850 g     F .text	00000050 _terminateio
000001f6  w    F .text	00000008 RTC_Seconds_IRQHandler
0000014c  w    F .text	00000002 Reserved45_DriverIRQHandler
00004062 g     F .text	00000006 __aeabi_idiv
000021c8 g     F .text	00000064 BOARD_BootClockRUN
00000226  w    F .text	00000008 MCG_IRQHandler
000001be  w    F .text	00000008 UART2_IRQHandler
00002698 g     F .text	000000f4 fseek
0000139c g     F .text	0000004c CLOCK_GetPllFllSelClkFreq
00000000 g       *ABS*	00000000 __base_Flash
000022a0 g     F .text	0000004c BOARD_InitPins
000024e0 g     F .text	00000060 _fflush
0000016e  w    F .text	00000008 Reserved20_IRQHandler
00004160 g     F .text	00000010 __gnu_thumb1_case_shi
00001c78 g     F .text	000000c0 LPSCI_ReadBlocking
00001fc4 g     F .text	00000044 UART_GetDefaultConfig
1ffff088 g       .bss	00000000 _bss
00001d90 g     F .text	00000054 UART_GetInstance
00004f30 g     O .text	00000008 oscConfig_BOARD_BootClockRUN
0000014c  w    F .text	00000002 PORTA_DriverIRQHandler
0000014c  w    F .text	00000002 TPM1_DriverIRQHandler
00000da0 g     F .text	00000228 test_pbkdf2_hmac_isha
00001b98 g     F .text	00000094 LPSCI_ClearStatusFlags
00000000 g       *ABS*	00000000 _image_start
00020000 g       *ABS*	00000000 __top_Flash
1ffff204 g       .noinit	00000000 _end_noinit
20003000 g       .stack	00000000 _vStackTop
000000d4 g       .text	00000000 __bss_section_table_end
000038c8 g     F .text	00000014 __check_heap_overflow
0000014c  w    F .text	00000002 RTC_DriverIRQHandler
00000000 g       *ABS*	00000000 __base_PROGRAM_FLASH
0000020e  w    F .text	00000008 USB0_IRQHandler
00001638 g     F .text	00000094 CLOCK_EnablePll0
00000504  w    F .text	00000058 __sys_write
00003fea g     F .text	00000008 memset
0000077c g     F .text	0000004c main
000038dc g     F .text	00000048 _do_fflush
0000278c g     F .text	00000048 ftell
000001fe  w    F .text	00000008 PIT_IRQHandler
00004068 g     F .text	00000072 __aeabi_uidiv
00000146  w    F .text	00000002 SVC_Handler
00003828 g     F .text	0000005c fclose
000014a4 g     F .text	00000070 CLOCK_GetPll0Freq
00003fc6 g     F .text	0000000e BOARD_InitBootPins
000020c4 g     F .text	00000024 UART2_DriverIRQHandler
00004188 g     F .text	00000006 __sys_seek
00003f10 g     F .text	00000016 CLOCK_SetExternalRefClkConfig
000016cc g     F .text	00000094 CLOCK_InitOsc0
0000014c  w    F .text	00000002 DMA1_DriverIRQHandler
00000166  w    F .text	00000008 DMA3_IRQHandler
00002008 g     F .text	00000098 UART_ReadBlocking
000022ec g     F .text	00000018 SystemInit
0000014e  w    F .text	00000008 DMA0_IRQHandler
00003f4c g     F .text	00000026 UART_GetStatusFlags
000000cc g       .text	00000000 __bss_section_table
0000014c  w    F .text	00000002 I2C1_DriverIRQHandler
00001514 g     F .text	00000124 CLOCK_SetInternalRefClkConfig
00004170 g     F .text	00000006 __sys_close
00003dda g     F .text	00000042 cmp_bin
00000216  w    F .text	00000008 DAC0_IRQHandler
1ffff080 g       .uninit_RESERVED	00000000 _end_uninit_RESERVED
1ffff080 g       .uninit_RESERVED	00000000 _start_uninit_RESERVED
00002540 g     F .text	00000068 _Cwritebuf
00003ce6 g     F .text	000000f4 hmac_isha
00001130 g     F .text	00000068 init_ticktime
00001d38 g     F .text	00000024 UART0_DriverIRQHandler
1ffff080 g       .data	00000000 _data
00000236  w    F .text	00000008 Reserved45_IRQHandler
1ffff1f4 g     O .bss	00000004 _number_of_exit_functions
1ffff204 g       .heap	00000000 _pvHeapStart
000000d4 g       .text	00000000 __section_table_end
0000014c  w    F .text	00000002 SPI0_DriverIRQHandler
000013e8 g     F .text	00000038 CLOCK_SetSimConfig
000001de  w    F .text	00000008 TPM1_IRQHandler
00000410 g     F .text	000000f4 DbgConsole_Init
0000014c  w    F .text	00000002 ADC0_DriverIRQHandler
00004182 g     F .text	00000006 __sys_remove
00004068 g     F .text	00000072 __aeabi_uidivmod
0000017e  w    F .text	00000008 LVD_LVW_IRQHandler
1ffff088 g       .data	00000000 _edata
0000019e  w    F .text	00000008 SPI0_IRQHandler
0000023e  w    F .text	00000008 PORTA_IRQHandler
00001420 g     F .text	00000084 CLOCK_GetFllFreq
0000014c  w    F .text	00000002 CMP0_DriverIRQHandler
1ffff1fc g     O .bss	00000004 __heaps
00003fe0 g     F .text	00000002 __sys_appexit
00000400 g     O .text	00000010 Flash_Config
00003f26 g     F .text	00000026 LPSCI_GetStatusFlags
00003fbc g     F .text	0000000a BOARD_InitBootPeripherals
000036ec g     F .text	0000002c exit
1ffff000 g       *ABS*	00000000 __base_RAM
00000000 g     O .text	000000c0 g_pfnVectors
00000176  w    F .text	00000008 FTFA_IRQHandler
000000d4 g     F .text	0000004c ResetISR
00004fac g       *ABS*	00000000 _image_end
00003e1c g     F .text	00000064 hexstr_to_bytes
1ffff1f8 g     O .bss	00000004 __end_of_heap
0000055c g     F .text	0000005c ISHAReset
00002678 g     F .text	00000020 _Csys_alloc
00003f72 g     F .text	0000003c UART_WriteBlocking
000040da g     F .text	00000002 __aeabi_idiv0
0000022e  w    F .text	00000008 LPTMR0_IRQHandler
00004f1c g     O .text	0000000a mcgConfig_BOARD_BootClockRUN
00003718 g     F .text	00000058 strlen
0000014c  w    F .text	00000002 DMA2_DriverIRQHandler
0000014c  w    F .text	00000002 PORTD_DriverIRQHandler
00003650 g     F .text	00000050 _printf
0000401e g     F .text	0000002e fputs
0000014c  w    F .text	00000002 I2C0_DriverIRQHandler
1ffff000 g     O .mtb_buffer_default	00000080 __mtb_buffer__
20001000 g       .stack	00000000 _vStackBase
000027d4 g     F .text	0000007c _initio
000001ce  w    F .text	00000008 CMP0_IRQHandler
00004062 g     F .text	00000006 __aeabi_idivmod
1ffff0bc g     O .bss	000000b4 __Ciob
0000417c g     F .text	00000006 __sys_istty
1ffff0a0 g     O .bss	00000004 g_xtal0Freq
00000156  w    F .text	00000008 DMA1_IRQHandler
00003ff2 g     F .text	0000002c free
00004f28 g     O .text	00000008 simConfig_BOARD_BootClockRUN



Disassembly of section .text:

00000000 <__Vectors>:
       0:	00 30 00 20 d5 00 00 00 43 01 00 00 c9 0f 00 00     .0. ....C.......
	...
      2c:	47 01 00 00 00 00 00 00 00 00 00 00 49 01 00 00     G...........I...
      3c:	99 11 00 00 4f 01 00 00 57 01 00 00 5f 01 00 00     ....O...W..._...
      4c:	67 01 00 00 6f 01 00 00 77 01 00 00 7f 01 00 00     g...o...w.......
      5c:	87 01 00 00 8f 01 00 00 97 01 00 00 9f 01 00 00     ................
      6c:	a7 01 00 00 af 01 00 00 b7 01 00 00 bf 01 00 00     ................
      7c:	c7 01 00 00 cf 01 00 00 d7 01 00 00 df 01 00 00     ................
      8c:	e7 01 00 00 ef 01 00 00 f7 01 00 00 ff 01 00 00     ................
      9c:	07 02 00 00 0f 02 00 00 17 02 00 00 1f 02 00 00     ................
      ac:	27 02 00 00 2f 02 00 00 37 02 00 00 3f 02 00 00     '.../...7...?...
      bc:	47 02 00 00                                         G...

000000c0 <__data_section_table>:
      c0:	00004fa4 	.word	0x00004fa4
      c4:	1ffff080 	.word	0x1ffff080
      c8:	00000008 	.word	0x00000008

000000cc <__bss_section_table>:
      cc:	1ffff088 	.word	0x1ffff088
      d0:	0000017c 	.word	0x0000017c

000000d4 <ResetISR>:
      d4:	b510      	push	{r4, lr}
      d6:	b672      	cpsid	i
      d8:	f002 f908 	bl	22ec <SystemInit>
      dc:	4b0d      	ldr	r3, [pc, #52]	; (114 <ResetISR+0x40>)
      de:	e007      	b.n	f0 <ResetISR+0x1c>
      e0:	6818      	ldr	r0, [r3, #0]
      e2:	6859      	ldr	r1, [r3, #4]
      e4:	001c      	movs	r4, r3
      e6:	340c      	adds	r4, #12
      e8:	689a      	ldr	r2, [r3, #8]
      ea:	f000 f819 	bl	120 <data_init>
      ee:	0023      	movs	r3, r4
      f0:	4a09      	ldr	r2, [pc, #36]	; (118 <ResetISR+0x44>)
      f2:	4293      	cmp	r3, r2
      f4:	d3f4      	bcc.n	e0 <ResetISR+0xc>
      f6:	e006      	b.n	106 <ResetISR+0x32>
      f8:	6818      	ldr	r0, [r3, #0]
      fa:	001c      	movs	r4, r3
      fc:	3408      	adds	r4, #8
      fe:	6859      	ldr	r1, [r3, #4]
     100:	f000 f817 	bl	132 <bss_init>
     104:	0023      	movs	r3, r4
     106:	4a05      	ldr	r2, [pc, #20]	; (11c <ResetISR+0x48>)
     108:	4293      	cmp	r3, r2
     10a:	d3f5      	bcc.n	f8 <ResetISR+0x24>
     10c:	b662      	cpsie	i
     10e:	f003 ff61 	bl	3fd4 <__main>
     112:	e7fe      	b.n	112 <ResetISR+0x3e>
     114:	000000c0 	.word	0x000000c0
     118:	000000cc 	.word	0x000000cc
     11c:	000000d4 	.word	0x000000d4

00000120 <data_init>:
     120:	b510      	push	{r4, lr}
     122:	2300      	movs	r3, #0
     124:	4293      	cmp	r3, r2
     126:	d203      	bcs.n	130 <data_init+0x10>
     128:	c810      	ldmia	r0!, {r4}
     12a:	c110      	stmia	r1!, {r4}
     12c:	3304      	adds	r3, #4
     12e:	e7f9      	b.n	124 <data_init+0x4>
     130:	bd10      	pop	{r4, pc}

00000132 <bss_init>:
     132:	2300      	movs	r3, #0
     134:	428b      	cmp	r3, r1
     136:	d203      	bcs.n	140 <bss_init+0xe>
     138:	2200      	movs	r2, #0
     13a:	c004      	stmia	r0!, {r2}
     13c:	3304      	adds	r3, #4
     13e:	e7f9      	b.n	134 <bss_init+0x2>
     140:	4770      	bx	lr

00000142 <NMI_Handler>:
     142:	e7fe      	b.n	142 <NMI_Handler>
     144:	e7fe      	b.n	144 <NMI_Handler+0x2>

00000146 <SVC_Handler>:
     146:	e7fe      	b.n	146 <SVC_Handler>

00000148 <PendSV_Handler>:
     148:	e7fe      	b.n	148 <PendSV_Handler>
     14a:	e7fe      	b.n	14a <PendSV_Handler+0x2>

0000014c <ADC0_DriverIRQHandler>:
     14c:	e7fe      	b.n	14c <ADC0_DriverIRQHandler>

0000014e <DMA0_IRQHandler>:
     14e:	b510      	push	{r4, lr}
     150:	f7ff fffc 	bl	14c <ADC0_DriverIRQHandler>
     154:	bd10      	pop	{r4, pc}

00000156 <DMA1_IRQHandler>:
     156:	b510      	push	{r4, lr}
     158:	f7ff fff8 	bl	14c <ADC0_DriverIRQHandler>
     15c:	bd10      	pop	{r4, pc}

0000015e <DMA2_IRQHandler>:
     15e:	b510      	push	{r4, lr}
     160:	f7ff fff4 	bl	14c <ADC0_DriverIRQHandler>
     164:	bd10      	pop	{r4, pc}

00000166 <DMA3_IRQHandler>:
     166:	b510      	push	{r4, lr}
     168:	f7ff fff0 	bl	14c <ADC0_DriverIRQHandler>
     16c:	bd10      	pop	{r4, pc}

0000016e <Reserved20_IRQHandler>:
     16e:	b510      	push	{r4, lr}
     170:	f7ff ffec 	bl	14c <ADC0_DriverIRQHandler>
     174:	bd10      	pop	{r4, pc}

00000176 <FTFA_IRQHandler>:
     176:	b510      	push	{r4, lr}
     178:	f7ff ffe8 	bl	14c <ADC0_DriverIRQHandler>
     17c:	bd10      	pop	{r4, pc}

0000017e <LVD_LVW_IRQHandler>:
     17e:	b510      	push	{r4, lr}
     180:	f7ff ffe4 	bl	14c <ADC0_DriverIRQHandler>
     184:	bd10      	pop	{r4, pc}

00000186 <LLWU_IRQHandler>:
     186:	b510      	push	{r4, lr}
     188:	f7ff ffe0 	bl	14c <ADC0_DriverIRQHandler>
     18c:	bd10      	pop	{r4, pc}

0000018e <I2C0_IRQHandler>:
     18e:	b510      	push	{r4, lr}
     190:	f7ff ffdc 	bl	14c <ADC0_DriverIRQHandler>
     194:	bd10      	pop	{r4, pc}

00000196 <I2C1_IRQHandler>:
     196:	b510      	push	{r4, lr}
     198:	f7ff ffd8 	bl	14c <ADC0_DriverIRQHandler>
     19c:	bd10      	pop	{r4, pc}

0000019e <SPI0_IRQHandler>:
     19e:	b510      	push	{r4, lr}
     1a0:	f7ff ffd4 	bl	14c <ADC0_DriverIRQHandler>
     1a4:	bd10      	pop	{r4, pc}

000001a6 <SPI1_IRQHandler>:
     1a6:	b510      	push	{r4, lr}
     1a8:	f7ff ffd0 	bl	14c <ADC0_DriverIRQHandler>
     1ac:	bd10      	pop	{r4, pc}

000001ae <UART0_IRQHandler>:
     1ae:	b510      	push	{r4, lr}
     1b0:	f001 fdc2 	bl	1d38 <UART0_DriverIRQHandler>
     1b4:	bd10      	pop	{r4, pc}

000001b6 <UART1_IRQHandler>:
     1b6:	b510      	push	{r4, lr}
     1b8:	f001 ff72 	bl	20a0 <UART1_DriverIRQHandler>
     1bc:	bd10      	pop	{r4, pc}

000001be <UART2_IRQHandler>:
     1be:	b510      	push	{r4, lr}
     1c0:	f001 ff80 	bl	20c4 <UART2_DriverIRQHandler>
     1c4:	bd10      	pop	{r4, pc}

000001c6 <ADC0_IRQHandler>:
     1c6:	b510      	push	{r4, lr}
     1c8:	f7ff ffc0 	bl	14c <ADC0_DriverIRQHandler>
     1cc:	bd10      	pop	{r4, pc}

000001ce <CMP0_IRQHandler>:
     1ce:	b510      	push	{r4, lr}
     1d0:	f7ff ffbc 	bl	14c <ADC0_DriverIRQHandler>
     1d4:	bd10      	pop	{r4, pc}

000001d6 <TPM0_IRQHandler>:
     1d6:	b510      	push	{r4, lr}
     1d8:	f7ff ffb8 	bl	14c <ADC0_DriverIRQHandler>
     1dc:	bd10      	pop	{r4, pc}

000001de <TPM1_IRQHandler>:
     1de:	b510      	push	{r4, lr}
     1e0:	f7ff ffb4 	bl	14c <ADC0_DriverIRQHandler>
     1e4:	bd10      	pop	{r4, pc}

000001e6 <TPM2_IRQHandler>:
     1e6:	b510      	push	{r4, lr}
     1e8:	f7ff ffb0 	bl	14c <ADC0_DriverIRQHandler>
     1ec:	bd10      	pop	{r4, pc}

000001ee <RTC_IRQHandler>:
     1ee:	b510      	push	{r4, lr}
     1f0:	f7ff ffac 	bl	14c <ADC0_DriverIRQHandler>
     1f4:	bd10      	pop	{r4, pc}

000001f6 <RTC_Seconds_IRQHandler>:
     1f6:	b510      	push	{r4, lr}
     1f8:	f7ff ffa8 	bl	14c <ADC0_DriverIRQHandler>
     1fc:	bd10      	pop	{r4, pc}

000001fe <PIT_IRQHandler>:
     1fe:	b510      	push	{r4, lr}
     200:	f7ff ffa4 	bl	14c <ADC0_DriverIRQHandler>
     204:	bd10      	pop	{r4, pc}

00000206 <Reserved39_IRQHandler>:
     206:	b510      	push	{r4, lr}
     208:	f7ff ffa0 	bl	14c <ADC0_DriverIRQHandler>
     20c:	bd10      	pop	{r4, pc}

0000020e <USB0_IRQHandler>:
     20e:	b510      	push	{r4, lr}
     210:	f7ff ff9c 	bl	14c <ADC0_DriverIRQHandler>
     214:	bd10      	pop	{r4, pc}

00000216 <DAC0_IRQHandler>:
     216:	b510      	push	{r4, lr}
     218:	f7ff ff98 	bl	14c <ADC0_DriverIRQHandler>
     21c:	bd10      	pop	{r4, pc}

0000021e <TSI0_IRQHandler>:
     21e:	b510      	push	{r4, lr}
     220:	f7ff ff94 	bl	14c <ADC0_DriverIRQHandler>
     224:	bd10      	pop	{r4, pc}

00000226 <MCG_IRQHandler>:
     226:	b510      	push	{r4, lr}
     228:	f7ff ff90 	bl	14c <ADC0_DriverIRQHandler>
     22c:	bd10      	pop	{r4, pc}

0000022e <LPTMR0_IRQHandler>:
     22e:	b510      	push	{r4, lr}
     230:	f7ff ff8c 	bl	14c <ADC0_DriverIRQHandler>
     234:	bd10      	pop	{r4, pc}

00000236 <Reserved45_IRQHandler>:
     236:	b510      	push	{r4, lr}
     238:	f7ff ff88 	bl	14c <ADC0_DriverIRQHandler>
     23c:	bd10      	pop	{r4, pc}

0000023e <PORTA_IRQHandler>:
     23e:	b510      	push	{r4, lr}
     240:	f7ff ff84 	bl	14c <ADC0_DriverIRQHandler>
     244:	bd10      	pop	{r4, pc}

00000246 <PORTD_IRQHandler>:
     246:	b510      	push	{r4, lr}
     248:	f7ff ff80 	bl	14c <ADC0_DriverIRQHandler>
     24c:	bd10      	pop	{r4, pc}
     24e:	ffff ffff 			; <UNDEFINED> instruction: 0xffffffff
     252:	ffff ffff 			; <UNDEFINED> instruction: 0xffffffff
     256:	ffff ffff 			; <UNDEFINED> instruction: 0xffffffff
     25a:	ffff ffff 			; <UNDEFINED> instruction: 0xffffffff
     25e:	ffff ffff 			; <UNDEFINED> instruction: 0xffffffff
     262:	ffff ffff 			; <UNDEFINED> instruction: 0xffffffff
     266:	ffff ffff 			; <UNDEFINED> instruction: 0xffffffff
     26a:	ffff ffff 			; <UNDEFINED> instruction: 0xffffffff
     26e:	ffff ffff 			; <UNDEFINED> instruction: 0xffffffff
     272:	ffff ffff 			; <UNDEFINED> instruction: 0xffffffff
     276:	ffff ffff 			; <UNDEFINED> instruction: 0xffffffff
     27a:	ffff ffff 			; <UNDEFINED> instruction: 0xffffffff
     27e:	ffff ffff 			; <UNDEFINED> instruction: 0xffffffff
     282:	ffff ffff 			; <UNDEFINED> instruction: 0xffffffff
     286:	ffff ffff 			; <UNDEFINED> instruction: 0xffffffff
     28a:	ffff ffff 			; <UNDEFINED> instruction: 0xffffffff
     28e:	ffff ffff 			; <UNDEFINED> instruction: 0xffffffff
     292:	ffff ffff 			; <UNDEFINED> instruction: 0xffffffff
     296:	ffff ffff 			; <UNDEFINED> instruction: 0xffffffff
     29a:	ffff ffff 			; <UNDEFINED> instruction: 0xffffffff
     29e:	ffff ffff 			; <UNDEFINED> instruction: 0xffffffff
     2a2:	ffff ffff 			; <UNDEFINED> instruction: 0xffffffff
     2a6:	ffff ffff 			; <UNDEFINED> instruction: 0xffffffff
     2aa:	ffff ffff 			; <UNDEFINED> instruction: 0xffffffff
     2ae:	ffff ffff 			; <UNDEFINED> instruction: 0xffffffff
     2b2:	ffff ffff 			; <UNDEFINED> instruction: 0xffffffff
     2b6:	ffff ffff 			; <UNDEFINED> instruction: 0xffffffff
     2ba:	ffff ffff 			; <UNDEFINED> instruction: 0xffffffff
     2be:	ffff ffff 			; <UNDEFINED> instruction: 0xffffffff
     2c2:	ffff ffff 			; <UNDEFINED> instruction: 0xffffffff
     2c6:	ffff ffff 			; <UNDEFINED> instruction: 0xffffffff
     2ca:	ffff ffff 			; <UNDEFINED> instruction: 0xffffffff
     2ce:	ffff ffff 			; <UNDEFINED> instruction: 0xffffffff
     2d2:	ffff ffff 			; <UNDEFINED> instruction: 0xffffffff
     2d6:	ffff ffff 			; <UNDEFINED> instruction: 0xffffffff
     2da:	ffff ffff 			; <UNDEFINED> instruction: 0xffffffff
     2de:	ffff ffff 			; <UNDEFINED> instruction: 0xffffffff
     2e2:	ffff ffff 			; <UNDEFINED> instruction: 0xffffffff
     2e6:	ffff ffff 			; <UNDEFINED> instruction: 0xffffffff
     2ea:	ffff ffff 			; <UNDEFINED> instruction: 0xffffffff
     2ee:	ffff ffff 			; <UNDEFINED> instruction: 0xffffffff
     2f2:	ffff ffff 			; <UNDEFINED> instruction: 0xffffffff
     2f6:	ffff ffff 			; <UNDEFINED> instruction: 0xffffffff
     2fa:	ffff ffff 			; <UNDEFINED> instruction: 0xffffffff
     2fe:	ffff ffff 			; <UNDEFINED> instruction: 0xffffffff
     302:	ffff ffff 			; <UNDEFINED> instruction: 0xffffffff
     306:	ffff ffff 			; <UNDEFINED> instruction: 0xffffffff
     30a:	ffff ffff 			; <UNDEFINED> instruction: 0xffffffff
     30e:	ffff ffff 			; <UNDEFINED> instruction: 0xffffffff
     312:	ffff ffff 			; <UNDEFINED> instruction: 0xffffffff
     316:	ffff ffff 			; <UNDEFINED> instruction: 0xffffffff
     31a:	ffff ffff 			; <UNDEFINED> instruction: 0xffffffff
     31e:	ffff ffff 			; <UNDEFINED> instruction: 0xffffffff
     322:	ffff ffff 			; <UNDEFINED> instruction: 0xffffffff
     326:	ffff ffff 			; <UNDEFINED> instruction: 0xffffffff
     32a:	ffff ffff 			; <UNDEFINED> instruction: 0xffffffff
     32e:	ffff ffff 			; <UNDEFINED> instruction: 0xffffffff
     332:	ffff ffff 			; <UNDEFINED> instruction: 0xffffffff
     336:	ffff ffff 			; <UNDEFINED> instruction: 0xffffffff
     33a:	ffff ffff 			; <UNDEFINED> instruction: 0xffffffff
     33e:	ffff ffff 			; <UNDEFINED> instruction: 0xffffffff
     342:	ffff ffff 			; <UNDEFINED> instruction: 0xffffffff
     346:	ffff ffff 			; <UNDEFINED> instruction: 0xffffffff
     34a:	ffff ffff 			; <UNDEFINED> instruction: 0xffffffff
     34e:	ffff ffff 			; <UNDEFINED> instruction: 0xffffffff
     352:	ffff ffff 			; <UNDEFINED> instruction: 0xffffffff
     356:	ffff ffff 			; <UNDEFINED> instruction: 0xffffffff
     35a:	ffff ffff 			; <UNDEFINED> instruction: 0xffffffff
     35e:	ffff ffff 			; <UNDEFINED> instruction: 0xffffffff
     362:	ffff ffff 			; <UNDEFINED> instruction: 0xffffffff
     366:	ffff ffff 			; <UNDEFINED> instruction: 0xffffffff
     36a:	ffff ffff 			; <UNDEFINED> instruction: 0xffffffff
     36e:	ffff ffff 			; <UNDEFINED> instruction: 0xffffffff
     372:	ffff ffff 			; <UNDEFINED> instruction: 0xffffffff
     376:	ffff ffff 			; <UNDEFINED> instruction: 0xffffffff
     37a:	ffff ffff 			; <UNDEFINED> instruction: 0xffffffff
     37e:	ffff ffff 			; <UNDEFINED> instruction: 0xffffffff
     382:	ffff ffff 			; <UNDEFINED> instruction: 0xffffffff
     386:	ffff ffff 			; <UNDEFINED> instruction: 0xffffffff
     38a:	ffff ffff 			; <UNDEFINED> instruction: 0xffffffff
     38e:	ffff ffff 			; <UNDEFINED> instruction: 0xffffffff
     392:	ffff ffff 			; <UNDEFINED> instruction: 0xffffffff
     396:	ffff ffff 			; <UNDEFINED> instruction: 0xffffffff
     39a:	ffff ffff 			; <UNDEFINED> instruction: 0xffffffff
     39e:	ffff ffff 			; <UNDEFINED> instruction: 0xffffffff
     3a2:	ffff ffff 			; <UNDEFINED> instruction: 0xffffffff
     3a6:	ffff ffff 			; <UNDEFINED> instruction: 0xffffffff
     3aa:	ffff ffff 			; <UNDEFINED> instruction: 0xffffffff
     3ae:	ffff ffff 			; <UNDEFINED> instruction: 0xffffffff
     3b2:	ffff ffff 			; <UNDEFINED> instruction: 0xffffffff
     3b6:	ffff ffff 			; <UNDEFINED> instruction: 0xffffffff
     3ba:	ffff ffff 			; <UNDEFINED> instruction: 0xffffffff
     3be:	ffff ffff 			; <UNDEFINED> instruction: 0xffffffff
     3c2:	ffff ffff 			; <UNDEFINED> instruction: 0xffffffff
     3c6:	ffff ffff 			; <UNDEFINED> instruction: 0xffffffff
     3ca:	ffff ffff 			; <UNDEFINED> instruction: 0xffffffff
     3ce:	ffff ffff 			; <UNDEFINED> instruction: 0xffffffff
     3d2:	ffff ffff 			; <UNDEFINED> instruction: 0xffffffff
     3d6:	ffff ffff 			; <UNDEFINED> instruction: 0xffffffff
     3da:	ffff ffff 			; <UNDEFINED> instruction: 0xffffffff
     3de:	ffff ffff 			; <UNDEFINED> instruction: 0xffffffff
     3e2:	ffff ffff 			; <UNDEFINED> instruction: 0xffffffff
     3e6:	ffff ffff 			; <UNDEFINED> instruction: 0xffffffff
     3ea:	ffff ffff 			; <UNDEFINED> instruction: 0xffffffff
     3ee:	ffff ffff 			; <UNDEFINED> instruction: 0xffffffff
     3f2:	ffff ffff 			; <UNDEFINED> instruction: 0xffffffff
     3f6:	ffff ffff 			; <UNDEFINED> instruction: 0xffffffff
     3fa:	ffff ffff 			; <UNDEFINED> instruction: 0xffffffff
     3fe:	Address 0x000003fe is out of bounds.


00000400 <Flash_Config>:
     400:	ffff ffff ffff ffff ffff ffff fffe ffff     ................

00000410 <DbgConsole_Init>:
     410:	b590      	push	{r4, r7, lr}
     412:	b089      	sub	sp, #36	; 0x24
     414:	af00      	add	r7, sp, #0
     416:	60f8      	str	r0, [r7, #12]
     418:	60b9      	str	r1, [r7, #8]
     41a:	603b      	str	r3, [r7, #0]
     41c:	1dfb      	adds	r3, r7, #7
     41e:	701a      	strb	r2, [r3, #0]
     420:	4b33      	ldr	r3, [pc, #204]	; (4f0 <DbgConsole_Init+0xe0>)
     422:	781b      	ldrb	r3, [r3, #0]
     424:	2b00      	cmp	r3, #0
     426:	d001      	beq.n	42c <DbgConsole_Init+0x1c>
     428:	2301      	movs	r3, #1
     42a:	e05c      	b.n	4e6 <DbgConsole_Init+0xd6>
     42c:	4b30      	ldr	r3, [pc, #192]	; (4f0 <DbgConsole_Init+0xe0>)
     42e:	1dfa      	adds	r2, r7, #7
     430:	7812      	ldrb	r2, [r2, #0]
     432:	701a      	strb	r2, [r3, #0]
     434:	1dfb      	adds	r3, r7, #7
     436:	781b      	ldrb	r3, [r3, #0]
     438:	2b06      	cmp	r3, #6
     43a:	d005      	beq.n	448 <DbgConsole_Init+0x38>
     43c:	dc50      	bgt.n	4e0 <DbgConsole_Init+0xd0>
     43e:	2b01      	cmp	r3, #1
     440:	d002      	beq.n	448 <DbgConsole_Init+0x38>
     442:	2b03      	cmp	r3, #3
     444:	d026      	beq.n	494 <DbgConsole_Init+0x84>
     446:	e04b      	b.n	4e0 <DbgConsole_Init+0xd0>
     448:	68fa      	ldr	r2, [r7, #12]
     44a:	4b29      	ldr	r3, [pc, #164]	; (4f0 <DbgConsole_Init+0xe0>)
     44c:	605a      	str	r2, [r3, #4]
     44e:	2418      	movs	r4, #24
     450:	193b      	adds	r3, r7, r4
     452:	0018      	movs	r0, r3
     454:	f001 fdb6 	bl	1fc4 <UART_GetDefaultConfig>
     458:	0021      	movs	r1, r4
     45a:	187b      	adds	r3, r7, r1
     45c:	68ba      	ldr	r2, [r7, #8]
     45e:	601a      	str	r2, [r3, #0]
     460:	4b23      	ldr	r3, [pc, #140]	; (4f0 <DbgConsole_Init+0xe0>)
     462:	685b      	ldr	r3, [r3, #4]
     464:	683a      	ldr	r2, [r7, #0]
     466:	1879      	adds	r1, r7, r1
     468:	0018      	movs	r0, r3
     46a:	f001 fcbb 	bl	1de4 <UART_Init>
     46e:	4b20      	ldr	r3, [pc, #128]	; (4f0 <DbgConsole_Init+0xe0>)
     470:	685b      	ldr	r3, [r3, #4]
     472:	2101      	movs	r1, #1
     474:	0018      	movs	r0, r3
     476:	f003 fa55 	bl	3924 <UART_EnableTx>
     47a:	4b1d      	ldr	r3, [pc, #116]	; (4f0 <DbgConsole_Init+0xe0>)
     47c:	685b      	ldr	r3, [r3, #4]
     47e:	2101      	movs	r1, #1
     480:	0018      	movs	r0, r3
     482:	f003 fa6f 	bl	3964 <UART_EnableRx>
     486:	4b1a      	ldr	r3, [pc, #104]	; (4f0 <DbgConsole_Init+0xe0>)
     488:	4a1a      	ldr	r2, [pc, #104]	; (4f4 <DbgConsole_Init+0xe4>)
     48a:	609a      	str	r2, [r3, #8]
     48c:	4b18      	ldr	r3, [pc, #96]	; (4f0 <DbgConsole_Init+0xe0>)
     48e:	4a1a      	ldr	r2, [pc, #104]	; (4f8 <DbgConsole_Init+0xe8>)
     490:	60da      	str	r2, [r3, #12]
     492:	e027      	b.n	4e4 <DbgConsole_Init+0xd4>
     494:	68fa      	ldr	r2, [r7, #12]
     496:	4b16      	ldr	r3, [pc, #88]	; (4f0 <DbgConsole_Init+0xe0>)
     498:	605a      	str	r2, [r3, #4]
     49a:	2410      	movs	r4, #16
     49c:	193b      	adds	r3, r7, r4
     49e:	0018      	movs	r0, r3
     4a0:	f001 fb58 	bl	1b54 <LPSCI_GetDefaultConfig>
     4a4:	0021      	movs	r1, r4
     4a6:	187b      	adds	r3, r7, r1
     4a8:	68ba      	ldr	r2, [r7, #8]
     4aa:	601a      	str	r2, [r3, #0]
     4ac:	4b10      	ldr	r3, [pc, #64]	; (4f0 <DbgConsole_Init+0xe0>)
     4ae:	685b      	ldr	r3, [r3, #4]
     4b0:	683a      	ldr	r2, [r7, #0]
     4b2:	1879      	adds	r1, r7, r1
     4b4:	0018      	movs	r0, r3
     4b6:	f001 fa21 	bl	18fc <LPSCI_Init>
     4ba:	4b0d      	ldr	r3, [pc, #52]	; (4f0 <DbgConsole_Init+0xe0>)
     4bc:	685b      	ldr	r3, [r3, #4]
     4be:	2101      	movs	r1, #1
     4c0:	0018      	movs	r0, r3
     4c2:	f003 fa6f 	bl	39a4 <LPSCI_EnableTx>
     4c6:	4b0a      	ldr	r3, [pc, #40]	; (4f0 <DbgConsole_Init+0xe0>)
     4c8:	685b      	ldr	r3, [r3, #4]
     4ca:	2101      	movs	r1, #1
     4cc:	0018      	movs	r0, r3
     4ce:	f003 fa89 	bl	39e4 <LPSCI_EnableRx>
     4d2:	4b07      	ldr	r3, [pc, #28]	; (4f0 <DbgConsole_Init+0xe0>)
     4d4:	4a09      	ldr	r2, [pc, #36]	; (4fc <DbgConsole_Init+0xec>)
     4d6:	609a      	str	r2, [r3, #8]
     4d8:	4b05      	ldr	r3, [pc, #20]	; (4f0 <DbgConsole_Init+0xe0>)
     4da:	4a09      	ldr	r2, [pc, #36]	; (500 <DbgConsole_Init+0xf0>)
     4dc:	60da      	str	r2, [r3, #12]
     4de:	e001      	b.n	4e4 <DbgConsole_Init+0xd4>
     4e0:	2304      	movs	r3, #4
     4e2:	e000      	b.n	4e6 <DbgConsole_Init+0xd6>
     4e4:	2300      	movs	r3, #0
     4e6:	0018      	movs	r0, r3
     4e8:	46bd      	mov	sp, r7
     4ea:	b009      	add	sp, #36	; 0x24
     4ec:	bd90      	pop	{r4, r7, pc}
     4ee:	46c0      	nop			; (mov r8, r8)
     4f0:	1ffff088 	.word	0x1ffff088
     4f4:	00003f73 	.word	0x00003f73
     4f8:	00002009 	.word	0x00002009
     4fc:	00001c2d 	.word	0x00001c2d
     500:	00001c79 	.word	0x00001c79

00000504 <__sys_write>:
     504:	b590      	push	{r4, r7, lr}
     506:	b085      	sub	sp, #20
     508:	af00      	add	r7, sp, #0
     50a:	60f8      	str	r0, [r7, #12]
     50c:	60b9      	str	r1, [r7, #8]
     50e:	607a      	str	r2, [r7, #4]
     510:	68bb      	ldr	r3, [r7, #8]
     512:	2b00      	cmp	r3, #0
     514:	d102      	bne.n	51c <__sys_write+0x18>
     516:	2301      	movs	r3, #1
     518:	425b      	negs	r3, r3
     51a:	e018      	b.n	54e <__sys_write+0x4a>
     51c:	68fb      	ldr	r3, [r7, #12]
     51e:	2b01      	cmp	r3, #1
     520:	d005      	beq.n	52e <__sys_write+0x2a>
     522:	68fb      	ldr	r3, [r7, #12]
     524:	2b02      	cmp	r3, #2
     526:	d002      	beq.n	52e <__sys_write+0x2a>
     528:	2301      	movs	r3, #1
     52a:	425b      	negs	r3, r3
     52c:	e00f      	b.n	54e <__sys_write+0x4a>
     52e:	4b0a      	ldr	r3, [pc, #40]	; (558 <__sys_write+0x54>)
     530:	781b      	ldrb	r3, [r3, #0]
     532:	2b00      	cmp	r3, #0
     534:	d102      	bne.n	53c <__sys_write+0x38>
     536:	2301      	movs	r3, #1
     538:	425b      	negs	r3, r3
     53a:	e008      	b.n	54e <__sys_write+0x4a>
     53c:	4b06      	ldr	r3, [pc, #24]	; (558 <__sys_write+0x54>)
     53e:	689c      	ldr	r4, [r3, #8]
     540:	4b05      	ldr	r3, [pc, #20]	; (558 <__sys_write+0x54>)
     542:	685b      	ldr	r3, [r3, #4]
     544:	687a      	ldr	r2, [r7, #4]
     546:	68b9      	ldr	r1, [r7, #8]
     548:	0018      	movs	r0, r3
     54a:	47a0      	blx	r4
     54c:	2300      	movs	r3, #0
     54e:	0018      	movs	r0, r3
     550:	46bd      	mov	sp, r7
     552:	b005      	add	sp, #20
     554:	bd90      	pop	{r4, r7, pc}
     556:	46c0      	nop			; (mov r8, r8)
     558:	1ffff088 	.word	0x1ffff088

0000055c <ISHAReset>:
     55c:	b580      	push	{r7, lr}
     55e:	b082      	sub	sp, #8
     560:	af00      	add	r7, sp, #0
     562:	6078      	str	r0, [r7, #4]
     564:	687b      	ldr	r3, [r7, #4]
     566:	2200      	movs	r2, #0
     568:	659a      	str	r2, [r3, #88]	; 0x58
     56a:	687b      	ldr	r3, [r7, #4]
     56c:	2200      	movs	r2, #0
     56e:	615a      	str	r2, [r3, #20]
     570:	687b      	ldr	r3, [r7, #4]
     572:	4a0c      	ldr	r2, [pc, #48]	; (5a4 <ISHAReset+0x48>)
     574:	601a      	str	r2, [r3, #0]
     576:	687b      	ldr	r3, [r7, #4]
     578:	4a0b      	ldr	r2, [pc, #44]	; (5a8 <ISHAReset+0x4c>)
     57a:	605a      	str	r2, [r3, #4]
     57c:	687b      	ldr	r3, [r7, #4]
     57e:	4a0b      	ldr	r2, [pc, #44]	; (5ac <ISHAReset+0x50>)
     580:	609a      	str	r2, [r3, #8]
     582:	687b      	ldr	r3, [r7, #4]
     584:	4a0a      	ldr	r2, [pc, #40]	; (5b0 <ISHAReset+0x54>)
     586:	60da      	str	r2, [r3, #12]
     588:	687b      	ldr	r3, [r7, #4]
     58a:	4a0a      	ldr	r2, [pc, #40]	; (5b4 <ISHAReset+0x58>)
     58c:	611a      	str	r2, [r3, #16]
     58e:	687b      	ldr	r3, [r7, #4]
     590:	2200      	movs	r2, #0
     592:	65da      	str	r2, [r3, #92]	; 0x5c
     594:	687b      	ldr	r3, [r7, #4]
     596:	2200      	movs	r2, #0
     598:	661a      	str	r2, [r3, #96]	; 0x60
     59a:	46c0      	nop			; (mov r8, r8)
     59c:	46bd      	mov	sp, r7
     59e:	b002      	add	sp, #8
     5a0:	bd80      	pop	{r7, pc}
     5a2:	46c0      	nop			; (mov r8, r8)
     5a4:	67452301 	.word	0x67452301
     5a8:	efcdab89 	.word	0xefcdab89
     5ac:	98badcfe 	.word	0x98badcfe
     5b0:	10325476 	.word	0x10325476
     5b4:	c3d2e1f0 	.word	0xc3d2e1f0

000005b8 <time_pbkdf2_hmac_isha>:
     5b8:	b5f0      	push	{r4, r5, r6, r7, lr}
     5ba:	46c6      	mov	lr, r8
     5bc:	b500      	push	{lr}
     5be:	4c4d      	ldr	r4, [pc, #308]	; (6f4 <time_pbkdf2_hmac_isha+0x13c>)
     5c0:	44a5      	add	sp, r4
     5c2:	af04      	add	r7, sp, #16
     5c4:	4b4c      	ldr	r3, [pc, #304]	; (6f8 <time_pbkdf2_hmac_isha+0x140>)
     5c6:	4a4d      	ldr	r2, [pc, #308]	; (6fc <time_pbkdf2_hmac_isha+0x144>)
     5c8:	2108      	movs	r1, #8
     5ca:	468c      	mov	ip, r1
     5cc:	44bc      	add	ip, r7
     5ce:	4462      	add	r2, ip
     5d0:	6013      	str	r3, [r2, #0]
     5d2:	4b4b      	ldr	r3, [pc, #300]	; (700 <time_pbkdf2_hmac_isha+0x148>)
     5d4:	2281      	movs	r2, #129	; 0x81
     5d6:	00d2      	lsls	r2, r2, #3
     5d8:	2108      	movs	r1, #8
     5da:	468c      	mov	ip, r1
     5dc:	44bc      	add	ip, r7
     5de:	4462      	add	r2, ip
     5e0:	6013      	str	r3, [r2, #0]
     5e2:	2380      	movs	r3, #128	; 0x80
     5e4:	015b      	lsls	r3, r3, #5
     5e6:	4698      	mov	r8, r3
     5e8:	2430      	movs	r4, #48	; 0x30
     5ea:	4b46      	ldr	r3, [pc, #280]	; (704 <time_pbkdf2_hmac_isha+0x14c>)
     5ec:	4a46      	ldr	r2, [pc, #280]	; (708 <time_pbkdf2_hmac_isha+0x150>)
     5ee:	2108      	movs	r1, #8
     5f0:	468c      	mov	ip, r1
     5f2:	44bc      	add	ip, r7
     5f4:	4462      	add	r2, ip
     5f6:	6013      	str	r3, [r2, #0]
     5f8:	2300      	movs	r3, #0
     5fa:	2280      	movs	r2, #128	; 0x80
     5fc:	00d2      	lsls	r2, r2, #3
     5fe:	2108      	movs	r1, #8
     600:	468c      	mov	ip, r1
     602:	44bc      	add	ip, r7
     604:	4462      	add	r2, ip
     606:	6013      	str	r3, [r2, #0]
     608:	2380      	movs	r3, #128	; 0x80
     60a:	009b      	lsls	r3, r3, #2
     60c:	429c      	cmp	r4, r3
     60e:	d903      	bls.n	618 <time_pbkdf2_hmac_isha+0x60>
     610:	4b3e      	ldr	r3, [pc, #248]	; (70c <time_pbkdf2_hmac_isha+0x154>)
     612:	0018      	movs	r0, r3
     614:	f001 fe76 	bl	2304 <__assertion_failed>
     618:	4b3b      	ldr	r3, [pc, #236]	; (708 <time_pbkdf2_hmac_isha+0x150>)
     61a:	2208      	movs	r2, #8
     61c:	4694      	mov	ip, r2
     61e:	44bc      	add	ip, r7
     620:	4463      	add	r3, ip
     622:	6819      	ldr	r1, [r3, #0]
     624:	2608      	movs	r6, #8
     626:	19bb      	adds	r3, r7, r6
     628:	0022      	movs	r2, r4
     62a:	0018      	movs	r0, r3
     62c:	f003 fbf6 	bl	3e1c <hexstr_to_bytes>
     630:	4b32      	ldr	r3, [pc, #200]	; (6fc <time_pbkdf2_hmac_isha+0x144>)
     632:	19ba      	adds	r2, r7, r6
     634:	18d2      	adds	r2, r2, r3
     636:	6813      	ldr	r3, [r2, #0]
     638:	0018      	movs	r0, r3
     63a:	f003 f86d 	bl	3718 <strlen>
     63e:	0003      	movs	r3, r0
     640:	607b      	str	r3, [r7, #4]
     642:	2281      	movs	r2, #129	; 0x81
     644:	00d2      	lsls	r2, r2, #3
     646:	19bb      	adds	r3, r7, r6
     648:	1898      	adds	r0, r3, r2
     64a:	6803      	ldr	r3, [r0, #0]
     64c:	0018      	movs	r0, r3
     64e:	f003 f863 	bl	3718 <strlen>
     652:	0003      	movs	r3, r0
     654:	001e      	movs	r6, r3
     656:	f000 fdab 	bl	11b0 <reset_timer>
     65a:	6879      	ldr	r1, [r7, #4]
     65c:	2281      	movs	r2, #129	; 0x81
     65e:	00d2      	lsls	r2, r2, #3
     660:	2308      	movs	r3, #8
     662:	469c      	mov	ip, r3
     664:	44bc      	add	ip, r7
     666:	4462      	add	r2, ip
     668:	6812      	ldr	r2, [r2, #0]
     66a:	4b24      	ldr	r3, [pc, #144]	; (6fc <time_pbkdf2_hmac_isha+0x144>)
     66c:	2008      	movs	r0, #8
     66e:	4684      	mov	ip, r0
     670:	44bc      	add	ip, r7
     672:	4463      	add	r3, ip
     674:	6818      	ldr	r0, [r3, #0]
     676:	2380      	movs	r3, #128	; 0x80
     678:	009b      	lsls	r3, r3, #2
     67a:	2508      	movs	r5, #8
     67c:	46ac      	mov	ip, r5
     67e:	44bc      	add	ip, r7
     680:	4463      	add	r3, ip
     682:	9302      	str	r3, [sp, #8]
     684:	9401      	str	r4, [sp, #4]
     686:	4643      	mov	r3, r8
     688:	9300      	str	r3, [sp, #0]
     68a:	0033      	movs	r3, r6
     68c:	f000 f944 	bl	918 <pbkdf2_hmac_isha>
     690:	f000 fd9c 	bl	11cc <get_timer>
     694:	0003      	movs	r3, r0
     696:	2680      	movs	r6, #128	; 0x80
     698:	00f6      	lsls	r6, r6, #3
     69a:	2108      	movs	r1, #8
     69c:	187a      	adds	r2, r7, r1
     69e:	1992      	adds	r2, r2, r6
     6a0:	6013      	str	r3, [r2, #0]
     6a2:	000d      	movs	r5, r1
     6a4:	1879      	adds	r1, r7, r1
     6a6:	2380      	movs	r3, #128	; 0x80
     6a8:	009b      	lsls	r3, r3, #2
     6aa:	2208      	movs	r2, #8
     6ac:	4694      	mov	ip, r2
     6ae:	44bc      	add	ip, r7
     6b0:	4463      	add	r3, ip
     6b2:	0022      	movs	r2, r4
     6b4:	0018      	movs	r0, r3
     6b6:	f003 fb90 	bl	3dda <cmp_bin>
     6ba:	1e03      	subs	r3, r0, #0
     6bc:	d00e      	beq.n	6dc <time_pbkdf2_hmac_isha+0x124>
     6be:	0029      	movs	r1, r5
     6c0:	187b      	adds	r3, r7, r1
     6c2:	199b      	adds	r3, r3, r6
     6c4:	681b      	ldr	r3, [r3, #0]
     6c6:	210a      	movs	r1, #10
     6c8:	0018      	movs	r0, r3
     6ca:	f003 fccd 	bl	4068 <__aeabi_uidiv>
     6ce:	0003      	movs	r3, r0
     6d0:	490f      	ldr	r1, [pc, #60]	; (710 <time_pbkdf2_hmac_isha+0x158>)
     6d2:	4810      	ldr	r0, [pc, #64]	; (714 <time_pbkdf2_hmac_isha+0x15c>)
     6d4:	4642      	mov	r2, r8
     6d6:	f002 ffbb 	bl	3650 <_printf>
     6da:	e003      	b.n	6e4 <time_pbkdf2_hmac_isha+0x12c>
     6dc:	4b0e      	ldr	r3, [pc, #56]	; (718 <time_pbkdf2_hmac_isha+0x160>)
     6de:	0018      	movs	r0, r3
     6e0:	f002 ffb6 	bl	3650 <_printf>
     6e4:	46c0      	nop			; (mov r8, r8)
     6e6:	46bd      	mov	sp, r7
     6e8:	2383      	movs	r3, #131	; 0x83
     6ea:	00db      	lsls	r3, r3, #3
     6ec:	449d      	add	sp, r3
     6ee:	bc04      	pop	{r2}
     6f0:	4690      	mov	r8, r2
     6f2:	bdf0      	pop	{r4, r5, r6, r7, pc}
     6f4:	fffffbd8 	.word	0xfffffbd8
     6f8:	00004194 	.word	0x00004194
     6fc:	0000040c 	.word	0x0000040c
     700:	0000419c 	.word	0x0000419c
     704:	000041a8 	.word	0x000041a8
     708:	00000404 	.word	0x00000404
     70c:	0000420c 	.word	0x0000420c
     710:	000042e4 	.word	0x000042e4
     714:	00004238 	.word	0x00004238
     718:	0000425c 	.word	0x0000425c

0000071c <run_tests>:
     71c:	b5b0      	push	{r4, r5, r7, lr}
     71e:	af00      	add	r7, sp, #0
     720:	2401      	movs	r4, #1
     722:	f000 f997 	bl	a54 <test_isha>
     726:	0003      	movs	r3, r0
     728:	001a      	movs	r2, r3
     72a:	0023      	movs	r3, r4
     72c:	4013      	ands	r3, r2
     72e:	1e5a      	subs	r2, r3, #1
     730:	4193      	sbcs	r3, r2
     732:	b2dc      	uxtb	r4, r3
     734:	f000 faac 	bl	c90 <test_hmac_isha>
     738:	0003      	movs	r3, r0
     73a:	001a      	movs	r2, r3
     73c:	0023      	movs	r3, r4
     73e:	4013      	ands	r3, r2
     740:	1e5a      	subs	r2, r3, #1
     742:	4193      	sbcs	r3, r2
     744:	b2dc      	uxtb	r4, r3
     746:	f000 fb2b 	bl	da0 <test_pbkdf2_hmac_isha>
     74a:	0003      	movs	r3, r0
     74c:	001a      	movs	r2, r3
     74e:	0023      	movs	r3, r4
     750:	4013      	ands	r3, r2
     752:	1e5a      	subs	r2, r3, #1
     754:	4193      	sbcs	r3, r2
     756:	b2dc      	uxtb	r4, r3
     758:	2c00      	cmp	r4, #0
     75a:	d109      	bne.n	770 <run_tests+0x54>
     75c:	4b06      	ldr	r3, [pc, #24]	; (778 <run_tests+0x5c>)
     75e:	0018      	movs	r0, r3
     760:	f002 ff76 	bl	3650 <_printf>
     764:	2301      	movs	r3, #1
     766:	425b      	negs	r3, r3
     768:	0018      	movs	r0, r3
     76a:	f002 ffbf 	bl	36ec <exit>
     76e:	e000      	b.n	772 <run_tests+0x56>
     770:	46c0      	nop			; (mov r8, r8)
     772:	46bd      	mov	sp, r7
     774:	bdb0      	pop	{r4, r5, r7, pc}
     776:	46c0      	nop			; (mov r8, r8)
     778:	00004274 	.word	0x00004274

0000077c <main>:
     77c:	b580      	push	{r7, lr}
     77e:	af00      	add	r7, sp, #0
     780:	f003 fc21 	bl	3fc6 <BOARD_InitBootPins>
     784:	f003 fc13 	bl	3fae <BOARD_InitBootClocks>
     788:	f003 fc18 	bl	3fbc <BOARD_InitBootPeripherals>
     78c:	f001 fcc8 	bl	2120 <BOARD_InitDebugConsole>
     790:	f000 fcce 	bl	1130 <init_ticktime>
     794:	4b09      	ldr	r3, [pc, #36]	; (7bc <main+0x40>)
     796:	0018      	movs	r0, r3
     798:	f002 ff5a 	bl	3650 <_printf>
     79c:	f7ff ffbe 	bl	71c <run_tests>
     7a0:	4b07      	ldr	r3, [pc, #28]	; (7c0 <main+0x44>)
     7a2:	0018      	movs	r0, r3
     7a4:	f002 ff54 	bl	3650 <_printf>
     7a8:	4b06      	ldr	r3, [pc, #24]	; (7c4 <main+0x48>)
     7aa:	0018      	movs	r0, r3
     7ac:	f002 ff50 	bl	3650 <_printf>
     7b0:	f7ff ff02 	bl	5b8 <time_pbkdf2_hmac_isha>
     7b4:	2300      	movs	r3, #0
     7b6:	0018      	movs	r0, r3
     7b8:	46bd      	mov	sp, r7
     7ba:	bd80      	pop	{r7, pc}
     7bc:	00004298 	.word	0x00004298
     7c0:	000042b4 	.word	0x000042b4
     7c4:	000042c8 	.word	0x000042c8

000007c8 <F>:
     7c8:	b5f0      	push	{r4, r5, r6, r7, lr}
     7ca:	4c4b      	ldr	r4, [pc, #300]	; (8f8 <F+0x130>)
     7cc:	44a5      	add	sp, r4
     7ce:	af02      	add	r7, sp, #8
     7d0:	60f8      	str	r0, [r7, #12]
     7d2:	60b9      	str	r1, [r7, #8]
     7d4:	607a      	str	r2, [r7, #4]
     7d6:	603b      	str	r3, [r7, #0]
     7d8:	683b      	ldr	r3, [r7, #0]
     7da:	1d1a      	adds	r2, r3, #4
     7dc:	2380      	movs	r3, #128	; 0x80
     7de:	011b      	lsls	r3, r3, #4
     7e0:	429a      	cmp	r2, r3
     7e2:	d903      	bls.n	7ec <F+0x24>
     7e4:	4b45      	ldr	r3, [pc, #276]	; (8fc <F+0x134>)
     7e6:	0018      	movs	r0, r3
     7e8:	f001 fd8c 	bl	2304 <__assertion_failed>
     7ec:	683a      	ldr	r2, [r7, #0]
     7ee:	6879      	ldr	r1, [r7, #4]
     7f0:	2514      	movs	r5, #20
     7f2:	197b      	adds	r3, r7, r5
     7f4:	0018      	movs	r0, r3
     7f6:	f003 fbf4 	bl	3fe2 <memcpy>
     7fa:	683c      	ldr	r4, [r7, #0]
     7fc:	4840      	ldr	r0, [pc, #256]	; (900 <F+0x138>)
     7fe:	2608      	movs	r6, #8
     800:	19bb      	adds	r3, r7, r6
     802:	181b      	adds	r3, r3, r0
     804:	681b      	ldr	r3, [r3, #0]
     806:	0e1b      	lsrs	r3, r3, #24
     808:	b2da      	uxtb	r2, r3
     80a:	4b3e      	ldr	r3, [pc, #248]	; (904 <F+0x13c>)
     80c:	493e      	ldr	r1, [pc, #248]	; (908 <F+0x140>)
     80e:	468c      	mov	ip, r1
     810:	44bc      	add	ip, r7
     812:	4463      	add	r3, ip
     814:	551a      	strb	r2, [r3, r4]
     816:	19bb      	adds	r3, r7, r6
     818:	181b      	adds	r3, r3, r0
     81a:	681b      	ldr	r3, [r3, #0]
     81c:	0c1a      	lsrs	r2, r3, #16
     81e:	1c63      	adds	r3, r4, #1
     820:	b2d1      	uxtb	r1, r2
     822:	4a38      	ldr	r2, [pc, #224]	; (904 <F+0x13c>)
     824:	4e38      	ldr	r6, [pc, #224]	; (908 <F+0x140>)
     826:	46b4      	mov	ip, r6
     828:	44bc      	add	ip, r7
     82a:	4462      	add	r2, ip
     82c:	54d1      	strb	r1, [r2, r3]
     82e:	2608      	movs	r6, #8
     830:	19bb      	adds	r3, r7, r6
     832:	181b      	adds	r3, r3, r0
     834:	681b      	ldr	r3, [r3, #0]
     836:	0a1a      	lsrs	r2, r3, #8
     838:	1ca3      	adds	r3, r4, #2
     83a:	b2d1      	uxtb	r1, r2
     83c:	4a31      	ldr	r2, [pc, #196]	; (904 <F+0x13c>)
     83e:	4e32      	ldr	r6, [pc, #200]	; (908 <F+0x140>)
     840:	46b4      	mov	ip, r6
     842:	44bc      	add	ip, r7
     844:	4462      	add	r2, ip
     846:	54d1      	strb	r1, [r2, r3]
     848:	1ce3      	adds	r3, r4, #3
     84a:	2608      	movs	r6, #8
     84c:	19ba      	adds	r2, r7, r6
     84e:	1812      	adds	r2, r2, r0
     850:	6812      	ldr	r2, [r2, #0]
     852:	b2d1      	uxtb	r1, r2
     854:	4a2b      	ldr	r2, [pc, #172]	; (904 <F+0x13c>)
     856:	482c      	ldr	r0, [pc, #176]	; (908 <F+0x140>)
     858:	4684      	mov	ip, r0
     85a:	44bc      	add	ip, r7
     85c:	4462      	add	r2, ip
     85e:	54d1      	strb	r1, [r2, r3]
     860:	683b      	ldr	r3, [r7, #0]
     862:	1d1c      	adds	r4, r3, #4
     864:	197a      	adds	r2, r7, r5
     866:	68b9      	ldr	r1, [r7, #8]
     868:	68f8      	ldr	r0, [r7, #12]
     86a:	4d28      	ldr	r5, [pc, #160]	; (90c <F+0x144>)
     86c:	197b      	adds	r3, r7, r5
     86e:	9300      	str	r3, [sp, #0]
     870:	0023      	movs	r3, r4
     872:	f003 fa38 	bl	3ce6 <hmac_isha>
     876:	1979      	adds	r1, r7, r5
     878:	2384      	movs	r3, #132	; 0x84
     87a:	011b      	lsls	r3, r3, #4
     87c:	2208      	movs	r2, #8
     87e:	4694      	mov	ip, r2
     880:	44bc      	add	ip, r7
     882:	4463      	add	r3, ip
     884:	681b      	ldr	r3, [r3, #0]
     886:	2214      	movs	r2, #20
     888:	0018      	movs	r0, r3
     88a:	f003 fbaa 	bl	3fe2 <memcpy>
     88e:	2501      	movs	r5, #1
     890:	e023      	b.n	8da <F+0x112>
     892:	4b1e      	ldr	r3, [pc, #120]	; (90c <F+0x144>)
     894:	18fa      	adds	r2, r7, r3
     896:	68b9      	ldr	r1, [r7, #8]
     898:	68f8      	ldr	r0, [r7, #12]
     89a:	18fb      	adds	r3, r7, r3
     89c:	9300      	str	r3, [sp, #0]
     89e:	2314      	movs	r3, #20
     8a0:	f003 fa21 	bl	3ce6 <hmac_isha>
     8a4:	2400      	movs	r4, #0
     8a6:	e015      	b.n	8d4 <F+0x10c>
     8a8:	0022      	movs	r2, r4
     8aa:	2684      	movs	r6, #132	; 0x84
     8ac:	0136      	lsls	r6, r6, #4
     8ae:	2308      	movs	r3, #8
     8b0:	18f9      	adds	r1, r7, r3
     8b2:	198b      	adds	r3, r1, r6
     8b4:	681b      	ldr	r3, [r3, #0]
     8b6:	189b      	adds	r3, r3, r2
     8b8:	7819      	ldrb	r1, [r3, #0]
     8ba:	4b14      	ldr	r3, [pc, #80]	; (90c <F+0x144>)
     8bc:	18fb      	adds	r3, r7, r3
     8be:	5d1a      	ldrb	r2, [r3, r4]
     8c0:	0020      	movs	r0, r4
     8c2:	2308      	movs	r3, #8
     8c4:	18fb      	adds	r3, r7, r3
     8c6:	199b      	adds	r3, r3, r6
     8c8:	681b      	ldr	r3, [r3, #0]
     8ca:	181b      	adds	r3, r3, r0
     8cc:	404a      	eors	r2, r1
     8ce:	b2d2      	uxtb	r2, r2
     8d0:	701a      	strb	r2, [r3, #0]
     8d2:	3401      	adds	r4, #1
     8d4:	2c13      	cmp	r4, #19
     8d6:	dde7      	ble.n	8a8 <F+0xe0>
     8d8:	3501      	adds	r5, #1
     8da:	4b0d      	ldr	r3, [pc, #52]	; (910 <F+0x148>)
     8dc:	2208      	movs	r2, #8
     8de:	4694      	mov	ip, r2
     8e0:	44bc      	add	ip, r7
     8e2:	4463      	add	r3, ip
     8e4:	681b      	ldr	r3, [r3, #0]
     8e6:	429d      	cmp	r5, r3
     8e8:	dbd3      	blt.n	892 <F+0xca>
     8ea:	46c0      	nop			; (mov r8, r8)
     8ec:	46c0      	nop			; (mov r8, r8)
     8ee:	46bd      	mov	sp, r7
     8f0:	4b08      	ldr	r3, [pc, #32]	; (914 <F+0x14c>)
     8f2:	449d      	add	sp, r3
     8f4:	bdf0      	pop	{r4, r5, r6, r7, pc}
     8f6:	46c0      	nop			; (mov r8, r8)
     8f8:	fffff7cc 	.word	0xfffff7cc
     8fc:	000042fc 	.word	0x000042fc
     900:	0000083c 	.word	0x0000083c
     904:	fffff7ec 	.word	0xfffff7ec
     908:	00000828 	.word	0x00000828
     90c:	00000814 	.word	0x00000814
     910:	00000838 	.word	0x00000838
     914:	0000082c 	.word	0x0000082c

00000918 <pbkdf2_hmac_isha>:
     918:	b5f0      	push	{r4, r5, r6, r7, lr}
     91a:	4c2c      	ldr	r4, [pc, #176]	; (9cc <pbkdf2_hmac_isha+0xb4>)
     91c:	44a5      	add	sp, r4
     91e:	af04      	add	r7, sp, #16
     920:	60f8      	str	r0, [r7, #12]
     922:	60b9      	str	r1, [r7, #8]
     924:	607a      	str	r2, [r7, #4]
     926:	603b      	str	r3, [r7, #0]
     928:	4b29      	ldr	r3, [pc, #164]	; (9d0 <pbkdf2_hmac_isha+0xb8>)
     92a:	18fb      	adds	r3, r7, r3
     92c:	681a      	ldr	r2, [r3, #0]
     92e:	23a0      	movs	r3, #160	; 0xa0
     930:	011b      	lsls	r3, r3, #4
     932:	429a      	cmp	r2, r3
     934:	d303      	bcc.n	93e <pbkdf2_hmac_isha+0x26>
     936:	4b27      	ldr	r3, [pc, #156]	; (9d4 <pbkdf2_hmac_isha+0xbc>)
     938:	0018      	movs	r0, r3
     93a:	f001 fce3 	bl	2304 <__assertion_failed>
     93e:	4b24      	ldr	r3, [pc, #144]	; (9d0 <pbkdf2_hmac_isha+0xb8>)
     940:	18fb      	adds	r3, r7, r3
     942:	681b      	ldr	r3, [r3, #0]
     944:	2114      	movs	r1, #20
     946:	0018      	movs	r0, r3
     948:	f003 fb8e 	bl	4068 <__aeabi_uidiv>
     94c:	0003      	movs	r3, r0
     94e:	3301      	adds	r3, #1
     950:	001d      	movs	r5, r3
     952:	2300      	movs	r3, #0
     954:	4a20      	ldr	r2, [pc, #128]	; (9d8 <pbkdf2_hmac_isha+0xc0>)
     956:	18ba      	adds	r2, r7, r2
     958:	6013      	str	r3, [r2, #0]
     95a:	e022      	b.n	9a2 <pbkdf2_hmac_isha+0x8a>
     95c:	4a1e      	ldr	r2, [pc, #120]	; (9d8 <pbkdf2_hmac_isha+0xc0>)
     95e:	18bb      	adds	r3, r7, r2
     960:	681b      	ldr	r3, [r3, #0]
     962:	3301      	adds	r3, #1
     964:	001e      	movs	r6, r3
     966:	18bb      	adds	r3, r7, r2
     968:	681a      	ldr	r2, [r3, #0]
     96a:	0013      	movs	r3, r2
     96c:	009b      	lsls	r3, r3, #2
     96e:	189b      	adds	r3, r3, r2
     970:	009b      	lsls	r3, r3, #2
     972:	001a      	movs	r2, r3
     974:	2314      	movs	r3, #20
     976:	18fb      	adds	r3, r7, r3
     978:	189b      	adds	r3, r3, r2
     97a:	683c      	ldr	r4, [r7, #0]
     97c:	687a      	ldr	r2, [r7, #4]
     97e:	68b9      	ldr	r1, [r7, #8]
     980:	68f8      	ldr	r0, [r7, #12]
     982:	9302      	str	r3, [sp, #8]
     984:	9601      	str	r6, [sp, #4]
     986:	23a3      	movs	r3, #163	; 0xa3
     988:	011b      	lsls	r3, r3, #4
     98a:	18fb      	adds	r3, r7, r3
     98c:	681b      	ldr	r3, [r3, #0]
     98e:	9300      	str	r3, [sp, #0]
     990:	0023      	movs	r3, r4
     992:	f7ff ff19 	bl	7c8 <F>
     996:	4a10      	ldr	r2, [pc, #64]	; (9d8 <pbkdf2_hmac_isha+0xc0>)
     998:	18bb      	adds	r3, r7, r2
     99a:	681b      	ldr	r3, [r3, #0]
     99c:	3301      	adds	r3, #1
     99e:	18ba      	adds	r2, r7, r2
     9a0:	6013      	str	r3, [r2, #0]
     9a2:	4b0d      	ldr	r3, [pc, #52]	; (9d8 <pbkdf2_hmac_isha+0xc0>)
     9a4:	18fb      	adds	r3, r7, r3
     9a6:	681b      	ldr	r3, [r3, #0]
     9a8:	42ab      	cmp	r3, r5
     9aa:	dbd7      	blt.n	95c <pbkdf2_hmac_isha+0x44>
     9ac:	4b08      	ldr	r3, [pc, #32]	; (9d0 <pbkdf2_hmac_isha+0xb8>)
     9ae:	18fb      	adds	r3, r7, r3
     9b0:	681a      	ldr	r2, [r3, #0]
     9b2:	2314      	movs	r3, #20
     9b4:	18f9      	adds	r1, r7, r3
     9b6:	4b09      	ldr	r3, [pc, #36]	; (9dc <pbkdf2_hmac_isha+0xc4>)
     9b8:	18fb      	adds	r3, r7, r3
     9ba:	681b      	ldr	r3, [r3, #0]
     9bc:	0018      	movs	r0, r3
     9be:	f003 fb10 	bl	3fe2 <memcpy>
     9c2:	46c0      	nop			; (mov r8, r8)
     9c4:	46bd      	mov	sp, r7
     9c6:	4b06      	ldr	r3, [pc, #24]	; (9e0 <pbkdf2_hmac_isha+0xc8>)
     9c8:	449d      	add	sp, r3
     9ca:	bdf0      	pop	{r4, r5, r6, r7, pc}
     9cc:	fffff5d4 	.word	0xfffff5d4
     9d0:	00000a34 	.word	0x00000a34
     9d4:	0000432c 	.word	0x0000432c
     9d8:	00000a14 	.word	0x00000a14
     9dc:	00000a38 	.word	0x00000a38
     9e0:	00000a1c 	.word	0x00000a1c

000009e4 <hexdigit_to_int>:
     9e4:	b580      	push	{r7, lr}
     9e6:	b082      	sub	sp, #8
     9e8:	af00      	add	r7, sp, #0
     9ea:	0002      	movs	r2, r0
     9ec:	1dfb      	adds	r3, r7, #7
     9ee:	701a      	strb	r2, [r3, #0]
     9f0:	1dfb      	adds	r3, r7, #7
     9f2:	781b      	ldrb	r3, [r3, #0]
     9f4:	2b60      	cmp	r3, #96	; 0x60
     9f6:	d908      	bls.n	a0a <hexdigit_to_int+0x26>
     9f8:	1dfb      	adds	r3, r7, #7
     9fa:	781b      	ldrb	r3, [r3, #0]
     9fc:	2b66      	cmp	r3, #102	; 0x66
     9fe:	d804      	bhi.n	a0a <hexdigit_to_int+0x26>
     a00:	1dfb      	adds	r3, r7, #7
     a02:	781b      	ldrb	r3, [r3, #0]
     a04:	3b57      	subs	r3, #87	; 0x57
     a06:	b2db      	uxtb	r3, r3
     a08:	e01d      	b.n	a46 <hexdigit_to_int+0x62>
     a0a:	1dfb      	adds	r3, r7, #7
     a0c:	781b      	ldrb	r3, [r3, #0]
     a0e:	2b40      	cmp	r3, #64	; 0x40
     a10:	d908      	bls.n	a24 <hexdigit_to_int+0x40>
     a12:	1dfb      	adds	r3, r7, #7
     a14:	781b      	ldrb	r3, [r3, #0]
     a16:	2b46      	cmp	r3, #70	; 0x46
     a18:	d804      	bhi.n	a24 <hexdigit_to_int+0x40>
     a1a:	1dfb      	adds	r3, r7, #7
     a1c:	781b      	ldrb	r3, [r3, #0]
     a1e:	3b37      	subs	r3, #55	; 0x37
     a20:	b2db      	uxtb	r3, r3
     a22:	e010      	b.n	a46 <hexdigit_to_int+0x62>
     a24:	1dfb      	adds	r3, r7, #7
     a26:	781b      	ldrb	r3, [r3, #0]
     a28:	2b2f      	cmp	r3, #47	; 0x2f
     a2a:	d908      	bls.n	a3e <hexdigit_to_int+0x5a>
     a2c:	1dfb      	adds	r3, r7, #7
     a2e:	781b      	ldrb	r3, [r3, #0]
     a30:	2b39      	cmp	r3, #57	; 0x39
     a32:	d804      	bhi.n	a3e <hexdigit_to_int+0x5a>
     a34:	1dfb      	adds	r3, r7, #7
     a36:	781b      	ldrb	r3, [r3, #0]
     a38:	3b30      	subs	r3, #48	; 0x30
     a3a:	b2db      	uxtb	r3, r3
     a3c:	e003      	b.n	a46 <hexdigit_to_int+0x62>
     a3e:	4b04      	ldr	r3, [pc, #16]	; (a50 <hexdigit_to_int+0x6c>)
     a40:	0018      	movs	r0, r3
     a42:	f001 fc5f 	bl	2304 <__assertion_failed>
     a46:	0018      	movs	r0, r3
     a48:	46bd      	mov	sp, r7
     a4a:	b002      	add	sp, #8
     a4c:	bd80      	pop	{r7, pc}
     a4e:	46c0      	nop			; (mov r8, r8)
     a50:	00004b1c 	.word	0x00004b1c

00000a54 <test_isha>:
     a54:	b5f0      	push	{r4, r5, r6, r7, lr}
     a56:	b0b3      	sub	sp, #204	; 0xcc
     a58:	af00      	add	r7, sp, #0
     a5a:	238c      	movs	r3, #140	; 0x8c
     a5c:	18fb      	adds	r3, r7, r3
     a5e:	4a88      	ldr	r2, [pc, #544]	; (c80 <test_isha+0x22c>)
     a60:	ca13      	ldmia	r2!, {r0, r1, r4}
     a62:	c313      	stmia	r3!, {r0, r1, r4}
     a64:	ca13      	ldmia	r2!, {r0, r1, r4}
     a66:	c313      	stmia	r3!, {r0, r1, r4}
     a68:	ca03      	ldmia	r2!, {r0, r1}
     a6a:	c303      	stmia	r3!, {r0, r1}
     a6c:	2304      	movs	r3, #4
     a6e:	22b0      	movs	r2, #176	; 0xb0
     a70:	18ba      	adds	r2, r7, r2
     a72:	6013      	str	r3, [r2, #0]
     a74:	2300      	movs	r3, #0
     a76:	22c4      	movs	r2, #196	; 0xc4
     a78:	18ba      	adds	r2, r7, r2
     a7a:	6013      	str	r3, [r2, #0]
     a7c:	2300      	movs	r3, #0
     a7e:	22bc      	movs	r2, #188	; 0xbc
     a80:	18ba      	adds	r2, r7, r2
     a82:	6013      	str	r3, [r2, #0]
     a84:	e055      	b.n	b32 <test_isha+0xde>
     a86:	258c      	movs	r5, #140	; 0x8c
     a88:	197b      	adds	r3, r7, r5
     a8a:	24bc      	movs	r4, #188	; 0xbc
     a8c:	193a      	adds	r2, r7, r4
     a8e:	6812      	ldr	r2, [r2, #0]
     a90:	00d2      	lsls	r2, r2, #3
     a92:	58d3      	ldr	r3, [r2, r3]
     a94:	0018      	movs	r0, r3
     a96:	f002 fe3f 	bl	3718 <strlen>
     a9a:	0003      	movs	r3, r0
     a9c:	26c0      	movs	r6, #192	; 0xc0
     a9e:	19ba      	adds	r2, r7, r6
     aa0:	6013      	str	r3, [r2, #0]
     aa2:	197a      	adds	r2, r7, r5
     aa4:	193b      	adds	r3, r7, r4
     aa6:	681b      	ldr	r3, [r3, #0]
     aa8:	00db      	lsls	r3, r3, #3
     aaa:	18d3      	adds	r3, r2, r3
     aac:	3304      	adds	r3, #4
     aae:	6819      	ldr	r1, [r3, #0]
     ab0:	2378      	movs	r3, #120	; 0x78
     ab2:	18fb      	adds	r3, r7, r3
     ab4:	2214      	movs	r2, #20
     ab6:	0018      	movs	r0, r3
     ab8:	f003 f9b0 	bl	3e1c <hexstr_to_bytes>
     abc:	003b      	movs	r3, r7
     abe:	0018      	movs	r0, r3
     ac0:	f7ff fd4c 	bl	55c <ISHAReset>
     ac4:	197b      	adds	r3, r7, r5
     ac6:	193a      	adds	r2, r7, r4
     ac8:	6812      	ldr	r2, [r2, #0]
     aca:	00d2      	lsls	r2, r2, #3
     acc:	58d1      	ldr	r1, [r2, r3]
     ace:	19ba      	adds	r2, r7, r6
     ad0:	6812      	ldr	r2, [r2, #0]
     ad2:	003b      	movs	r3, r7
     ad4:	0018      	movs	r0, r3
     ad6:	f003 f8b8 	bl	3c4a <ISHAInput>
     ada:	2564      	movs	r5, #100	; 0x64
     adc:	197a      	adds	r2, r7, r5
     ade:	003b      	movs	r3, r7
     ae0:	0011      	movs	r1, r2
     ae2:	0018      	movs	r0, r3
     ae4:	f003 f87b 	bl	3bde <ISHAResult>
     ae8:	2378      	movs	r3, #120	; 0x78
     aea:	18f9      	adds	r1, r7, r3
     aec:	197b      	adds	r3, r7, r5
     aee:	2214      	movs	r2, #20
     af0:	0018      	movs	r0, r3
     af2:	f003 f972 	bl	3dda <cmp_bin>
     af6:	1e03      	subs	r3, r0, #0
     af8:	d00d      	beq.n	b16 <test_isha+0xc2>
     afa:	193b      	adds	r3, r7, r4
     afc:	681a      	ldr	r2, [r3, #0]
     afe:	4961      	ldr	r1, [pc, #388]	; (c84 <test_isha+0x230>)
     b00:	4b61      	ldr	r3, [pc, #388]	; (c88 <test_isha+0x234>)
     b02:	0018      	movs	r0, r3
     b04:	f002 fda4 	bl	3650 <_printf>
     b08:	22c4      	movs	r2, #196	; 0xc4
     b0a:	18bb      	adds	r3, r7, r2
     b0c:	681b      	ldr	r3, [r3, #0]
     b0e:	3301      	adds	r3, #1
     b10:	18ba      	adds	r2, r7, r2
     b12:	6013      	str	r3, [r2, #0]
     b14:	e007      	b.n	b26 <test_isha+0xd2>
     b16:	23bc      	movs	r3, #188	; 0xbc
     b18:	18fb      	adds	r3, r7, r3
     b1a:	681a      	ldr	r2, [r3, #0]
     b1c:	4959      	ldr	r1, [pc, #356]	; (c84 <test_isha+0x230>)
     b1e:	4b5b      	ldr	r3, [pc, #364]	; (c8c <test_isha+0x238>)
     b20:	0018      	movs	r0, r3
     b22:	f002 fd95 	bl	3650 <_printf>
     b26:	22bc      	movs	r2, #188	; 0xbc
     b28:	18bb      	adds	r3, r7, r2
     b2a:	681b      	ldr	r3, [r3, #0]
     b2c:	3301      	adds	r3, #1
     b2e:	18ba      	adds	r2, r7, r2
     b30:	6013      	str	r3, [r2, #0]
     b32:	23bc      	movs	r3, #188	; 0xbc
     b34:	18fb      	adds	r3, r7, r3
     b36:	681a      	ldr	r2, [r3, #0]
     b38:	23b0      	movs	r3, #176	; 0xb0
     b3a:	18fb      	adds	r3, r7, r3
     b3c:	681b      	ldr	r3, [r3, #0]
     b3e:	429a      	cmp	r2, r3
     b40:	dba1      	blt.n	a86 <test_isha+0x32>
     b42:	2300      	movs	r3, #0
     b44:	22b8      	movs	r2, #184	; 0xb8
     b46:	18ba      	adds	r2, r7, r2
     b48:	6013      	str	r3, [r2, #0]
     b4a:	e082      	b.n	c52 <test_isha+0x1fe>
     b4c:	248c      	movs	r4, #140	; 0x8c
     b4e:	193b      	adds	r3, r7, r4
     b50:	25b8      	movs	r5, #184	; 0xb8
     b52:	197a      	adds	r2, r7, r5
     b54:	6812      	ldr	r2, [r2, #0]
     b56:	00d2      	lsls	r2, r2, #3
     b58:	58d3      	ldr	r3, [r2, r3]
     b5a:	22b4      	movs	r2, #180	; 0xb4
     b5c:	18ba      	adds	r2, r7, r2
     b5e:	6013      	str	r3, [r2, #0]
     b60:	193b      	adds	r3, r7, r4
     b62:	197a      	adds	r2, r7, r5
     b64:	6812      	ldr	r2, [r2, #0]
     b66:	00d2      	lsls	r2, r2, #3
     b68:	58d3      	ldr	r3, [r2, r3]
     b6a:	0018      	movs	r0, r3
     b6c:	f002 fdd4 	bl	3718 <strlen>
     b70:	0003      	movs	r3, r0
     b72:	22c0      	movs	r2, #192	; 0xc0
     b74:	18ba      	adds	r2, r7, r2
     b76:	6013      	str	r3, [r2, #0]
     b78:	193a      	adds	r2, r7, r4
     b7a:	197b      	adds	r3, r7, r5
     b7c:	681b      	ldr	r3, [r3, #0]
     b7e:	00db      	lsls	r3, r3, #3
     b80:	18d3      	adds	r3, r2, r3
     b82:	3304      	adds	r3, #4
     b84:	6819      	ldr	r1, [r3, #0]
     b86:	2378      	movs	r3, #120	; 0x78
     b88:	18fb      	adds	r3, r7, r3
     b8a:	2214      	movs	r2, #20
     b8c:	0018      	movs	r0, r3
     b8e:	f003 f945 	bl	3e1c <hexstr_to_bytes>
     b92:	003b      	movs	r3, r7
     b94:	0018      	movs	r0, r3
     b96:	f7ff fce1 	bl	55c <ISHAReset>
     b9a:	e020      	b.n	bde <test_isha+0x18a>
     b9c:	23c0      	movs	r3, #192	; 0xc0
     b9e:	18fb      	adds	r3, r7, r3
     ba0:	681b      	ldr	r3, [r3, #0]
     ba2:	2b0a      	cmp	r3, #10
     ba4:	dd00      	ble.n	ba8 <test_isha+0x154>
     ba6:	230a      	movs	r3, #10
     ba8:	24ac      	movs	r4, #172	; 0xac
     baa:	193a      	adds	r2, r7, r4
     bac:	6013      	str	r3, [r2, #0]
     bae:	193b      	adds	r3, r7, r4
     bb0:	681a      	ldr	r2, [r3, #0]
     bb2:	25b4      	movs	r5, #180	; 0xb4
     bb4:	197b      	adds	r3, r7, r5
     bb6:	6819      	ldr	r1, [r3, #0]
     bb8:	003b      	movs	r3, r7
     bba:	0018      	movs	r0, r3
     bbc:	f003 f845 	bl	3c4a <ISHAInput>
     bc0:	21c0      	movs	r1, #192	; 0xc0
     bc2:	187b      	adds	r3, r7, r1
     bc4:	681a      	ldr	r2, [r3, #0]
     bc6:	193b      	adds	r3, r7, r4
     bc8:	681b      	ldr	r3, [r3, #0]
     bca:	1ad3      	subs	r3, r2, r3
     bcc:	187a      	adds	r2, r7, r1
     bce:	6013      	str	r3, [r2, #0]
     bd0:	193b      	adds	r3, r7, r4
     bd2:	681b      	ldr	r3, [r3, #0]
     bd4:	197a      	adds	r2, r7, r5
     bd6:	6812      	ldr	r2, [r2, #0]
     bd8:	18d3      	adds	r3, r2, r3
     bda:	197a      	adds	r2, r7, r5
     bdc:	6013      	str	r3, [r2, #0]
     bde:	23c0      	movs	r3, #192	; 0xc0
     be0:	18fb      	adds	r3, r7, r3
     be2:	681b      	ldr	r3, [r3, #0]
     be4:	2b00      	cmp	r3, #0
     be6:	dcd9      	bgt.n	b9c <test_isha+0x148>
     be8:	2464      	movs	r4, #100	; 0x64
     bea:	193a      	adds	r2, r7, r4
     bec:	003b      	movs	r3, r7
     bee:	0011      	movs	r1, r2
     bf0:	0018      	movs	r0, r3
     bf2:	f002 fff4 	bl	3bde <ISHAResult>
     bf6:	2378      	movs	r3, #120	; 0x78
     bf8:	18f9      	adds	r1, r7, r3
     bfa:	193b      	adds	r3, r7, r4
     bfc:	2214      	movs	r2, #20
     bfe:	0018      	movs	r0, r3
     c00:	f003 f8eb 	bl	3dda <cmp_bin>
     c04:	1e03      	subs	r3, r0, #0
     c06:	d012      	beq.n	c2e <test_isha+0x1da>
     c08:	23b8      	movs	r3, #184	; 0xb8
     c0a:	18fb      	adds	r3, r7, r3
     c0c:	681a      	ldr	r2, [r3, #0]
     c0e:	23b0      	movs	r3, #176	; 0xb0
     c10:	18fb      	adds	r3, r7, r3
     c12:	681b      	ldr	r3, [r3, #0]
     c14:	18d2      	adds	r2, r2, r3
     c16:	491b      	ldr	r1, [pc, #108]	; (c84 <test_isha+0x230>)
     c18:	4b1b      	ldr	r3, [pc, #108]	; (c88 <test_isha+0x234>)
     c1a:	0018      	movs	r0, r3
     c1c:	f002 fd18 	bl	3650 <_printf>
     c20:	22c4      	movs	r2, #196	; 0xc4
     c22:	18bb      	adds	r3, r7, r2
     c24:	681b      	ldr	r3, [r3, #0]
     c26:	3301      	adds	r3, #1
     c28:	18ba      	adds	r2, r7, r2
     c2a:	6013      	str	r3, [r2, #0]
     c2c:	e00b      	b.n	c46 <test_isha+0x1f2>
     c2e:	23b8      	movs	r3, #184	; 0xb8
     c30:	18fb      	adds	r3, r7, r3
     c32:	681a      	ldr	r2, [r3, #0]
     c34:	23b0      	movs	r3, #176	; 0xb0
     c36:	18fb      	adds	r3, r7, r3
     c38:	681b      	ldr	r3, [r3, #0]
     c3a:	18d2      	adds	r2, r2, r3
     c3c:	4911      	ldr	r1, [pc, #68]	; (c84 <test_isha+0x230>)
     c3e:	4b13      	ldr	r3, [pc, #76]	; (c8c <test_isha+0x238>)
     c40:	0018      	movs	r0, r3
     c42:	f002 fd05 	bl	3650 <_printf>
     c46:	22b8      	movs	r2, #184	; 0xb8
     c48:	18bb      	adds	r3, r7, r2
     c4a:	681b      	ldr	r3, [r3, #0]
     c4c:	3301      	adds	r3, #1
     c4e:	18ba      	adds	r2, r7, r2
     c50:	6013      	str	r3, [r2, #0]
     c52:	23b8      	movs	r3, #184	; 0xb8
     c54:	18fb      	adds	r3, r7, r3
     c56:	681a      	ldr	r2, [r3, #0]
     c58:	21b0      	movs	r1, #176	; 0xb0
     c5a:	187b      	adds	r3, r7, r1
     c5c:	681b      	ldr	r3, [r3, #0]
     c5e:	429a      	cmp	r2, r3
     c60:	da00      	bge.n	c64 <test_isha+0x210>
     c62:	e773      	b.n	b4c <test_isha+0xf8>
     c64:	187b      	adds	r3, r7, r1
     c66:	681b      	ldr	r3, [r3, #0]
     c68:	005b      	lsls	r3, r3, #1
     c6a:	22c4      	movs	r2, #196	; 0xc4
     c6c:	18ba      	adds	r2, r7, r2
     c6e:	6812      	ldr	r2, [r2, #0]
     c70:	1ad3      	subs	r3, r2, r3
     c72:	425a      	negs	r2, r3
     c74:	4153      	adcs	r3, r2
     c76:	b2db      	uxtb	r3, r3
     c78:	0018      	movs	r0, r3
     c7a:	46bd      	mov	sp, r7
     c7c:	b033      	add	sp, #204	; 0xcc
     c7e:	bdf0      	pop	{r4, r5, r6, r7, pc}
     c80:	00004b64 	.word	0x00004b64
     c84:	00004cc0 	.word	0x00004cc0
     c88:	00004b34 	.word	0x00004b34
     c8c:	00004b4c 	.word	0x00004b4c

00000c90 <test_hmac_isha>:
     c90:	b5f0      	push	{r4, r5, r6, r7, lr}
     c92:	b09b      	sub	sp, #108	; 0x6c
     c94:	af02      	add	r7, sp, #8
     c96:	2328      	movs	r3, #40	; 0x28
     c98:	18fb      	adds	r3, r7, r3
     c9a:	4a3d      	ldr	r2, [pc, #244]	; (d90 <test_hmac_isha+0x100>)
     c9c:	ca13      	ldmia	r2!, {r0, r1, r4}
     c9e:	c313      	stmia	r3!, {r0, r1, r4}
     ca0:	ca13      	ldmia	r2!, {r0, r1, r4}
     ca2:	c313      	stmia	r3!, {r0, r1, r4}
     ca4:	ca13      	ldmia	r2!, {r0, r1, r4}
     ca6:	c313      	stmia	r3!, {r0, r1, r4}
     ca8:	2303      	movs	r3, #3
     caa:	657b      	str	r3, [r7, #84]	; 0x54
     cac:	2300      	movs	r3, #0
     cae:	65fb      	str	r3, [r7, #92]	; 0x5c
     cb0:	2300      	movs	r3, #0
     cb2:	65bb      	str	r3, [r7, #88]	; 0x58
     cb4:	e05d      	b.n	d72 <test_hmac_isha+0xe2>
     cb6:	2428      	movs	r4, #40	; 0x28
     cb8:	1939      	adds	r1, r7, r4
     cba:	6dba      	ldr	r2, [r7, #88]	; 0x58
     cbc:	0013      	movs	r3, r2
     cbe:	005b      	lsls	r3, r3, #1
     cc0:	189b      	adds	r3, r3, r2
     cc2:	009b      	lsls	r3, r3, #2
     cc4:	585b      	ldr	r3, [r3, r1]
     cc6:	0018      	movs	r0, r3
     cc8:	f002 fd26 	bl	3718 <strlen>
     ccc:	0003      	movs	r3, r0
     cce:	653b      	str	r3, [r7, #80]	; 0x50
     cd0:	1939      	adds	r1, r7, r4
     cd2:	6dba      	ldr	r2, [r7, #88]	; 0x58
     cd4:	0013      	movs	r3, r2
     cd6:	005b      	lsls	r3, r3, #1
     cd8:	189b      	adds	r3, r3, r2
     cda:	009b      	lsls	r3, r3, #2
     cdc:	18cb      	adds	r3, r1, r3
     cde:	3304      	adds	r3, #4
     ce0:	681b      	ldr	r3, [r3, #0]
     ce2:	0018      	movs	r0, r3
     ce4:	f002 fd18 	bl	3718 <strlen>
     ce8:	0003      	movs	r3, r0
     cea:	64fb      	str	r3, [r7, #76]	; 0x4c
     cec:	1939      	adds	r1, r7, r4
     cee:	6dba      	ldr	r2, [r7, #88]	; 0x58
     cf0:	0013      	movs	r3, r2
     cf2:	005b      	lsls	r3, r3, #1
     cf4:	189b      	adds	r3, r3, r2
     cf6:	009b      	lsls	r3, r3, #2
     cf8:	18cb      	adds	r3, r1, r3
     cfa:	3308      	adds	r3, #8
     cfc:	6819      	ldr	r1, [r3, #0]
     cfe:	2614      	movs	r6, #20
     d00:	19bb      	adds	r3, r7, r6
     d02:	2214      	movs	r2, #20
     d04:	0018      	movs	r0, r3
     d06:	f003 f889 	bl	3e1c <hexstr_to_bytes>
     d0a:	0025      	movs	r5, r4
     d0c:	1939      	adds	r1, r7, r4
     d0e:	6dba      	ldr	r2, [r7, #88]	; 0x58
     d10:	0013      	movs	r3, r2
     d12:	005b      	lsls	r3, r3, #1
     d14:	189b      	adds	r3, r3, r2
     d16:	009b      	lsls	r3, r3, #2
     d18:	5858      	ldr	r0, [r3, r1]
     d1a:	6d3c      	ldr	r4, [r7, #80]	; 0x50
     d1c:	1979      	adds	r1, r7, r5
     d1e:	6dba      	ldr	r2, [r7, #88]	; 0x58
     d20:	0013      	movs	r3, r2
     d22:	005b      	lsls	r3, r3, #1
     d24:	189b      	adds	r3, r3, r2
     d26:	009b      	lsls	r3, r3, #2
     d28:	18cb      	adds	r3, r1, r3
     d2a:	3304      	adds	r3, #4
     d2c:	681a      	ldr	r2, [r3, #0]
     d2e:	6cf9      	ldr	r1, [r7, #76]	; 0x4c
     d30:	003b      	movs	r3, r7
     d32:	9300      	str	r3, [sp, #0]
     d34:	000b      	movs	r3, r1
     d36:	0021      	movs	r1, r4
     d38:	f002 ffd5 	bl	3ce6 <hmac_isha>
     d3c:	19b9      	adds	r1, r7, r6
     d3e:	003b      	movs	r3, r7
     d40:	2214      	movs	r2, #20
     d42:	0018      	movs	r0, r3
     d44:	f003 f849 	bl	3dda <cmp_bin>
     d48:	1e03      	subs	r3, r0, #0
     d4a:	d009      	beq.n	d60 <test_hmac_isha+0xd0>
     d4c:	6dba      	ldr	r2, [r7, #88]	; 0x58
     d4e:	4911      	ldr	r1, [pc, #68]	; (d94 <test_hmac_isha+0x104>)
     d50:	4b11      	ldr	r3, [pc, #68]	; (d98 <test_hmac_isha+0x108>)
     d52:	0018      	movs	r0, r3
     d54:	f002 fc7c 	bl	3650 <_printf>
     d58:	6dfb      	ldr	r3, [r7, #92]	; 0x5c
     d5a:	3301      	adds	r3, #1
     d5c:	65fb      	str	r3, [r7, #92]	; 0x5c
     d5e:	e005      	b.n	d6c <test_hmac_isha+0xdc>
     d60:	6dba      	ldr	r2, [r7, #88]	; 0x58
     d62:	490c      	ldr	r1, [pc, #48]	; (d94 <test_hmac_isha+0x104>)
     d64:	4b0d      	ldr	r3, [pc, #52]	; (d9c <test_hmac_isha+0x10c>)
     d66:	0018      	movs	r0, r3
     d68:	f002 fc72 	bl	3650 <_printf>
     d6c:	6dbb      	ldr	r3, [r7, #88]	; 0x58
     d6e:	3301      	adds	r3, #1
     d70:	65bb      	str	r3, [r7, #88]	; 0x58
     d72:	6dba      	ldr	r2, [r7, #88]	; 0x58
     d74:	6d7b      	ldr	r3, [r7, #84]	; 0x54
     d76:	429a      	cmp	r2, r3
     d78:	db9d      	blt.n	cb6 <test_hmac_isha+0x26>
     d7a:	6d7a      	ldr	r2, [r7, #84]	; 0x54
     d7c:	6dfb      	ldr	r3, [r7, #92]	; 0x5c
     d7e:	1ad3      	subs	r3, r2, r3
     d80:	425a      	negs	r2, r3
     d82:	4153      	adcs	r3, r2
     d84:	b2db      	uxtb	r3, r3
     d86:	0018      	movs	r0, r3
     d88:	46bd      	mov	sp, r7
     d8a:	b019      	add	sp, #100	; 0x64
     d8c:	bdf0      	pop	{r4, r5, r6, r7, pc}
     d8e:	46c0      	nop			; (mov r8, r8)
     d90:	00004b84 	.word	0x00004b84
     d94:	00004ccc 	.word	0x00004ccc
     d98:	00004b34 	.word	0x00004b34
     d9c:	00004b4c 	.word	0x00004b4c

00000da0 <test_pbkdf2_hmac_isha>:
     da0:	b5f0      	push	{r4, r5, r6, r7, lr}
     da2:	4c7f      	ldr	r4, [pc, #508]	; (fa0 <test_pbkdf2_hmac_isha+0x200>)
     da4:	44a5      	add	sp, r4
     da6:	af04      	add	r7, sp, #16
     da8:	2380      	movs	r3, #128	; 0x80
     daa:	00db      	lsls	r3, r3, #3
     dac:	18fa      	adds	r2, r7, r3
     dae:	4b7d      	ldr	r3, [pc, #500]	; (fa4 <test_pbkdf2_hmac_isha+0x204>)
     db0:	0010      	movs	r0, r2
     db2:	0019      	movs	r1, r3
     db4:	23dc      	movs	r3, #220	; 0xdc
     db6:	001a      	movs	r2, r3
     db8:	f003 f913 	bl	3fe2 <memcpy>
     dbc:	230b      	movs	r3, #11
     dbe:	4a7a      	ldr	r2, [pc, #488]	; (fa8 <test_pbkdf2_hmac_isha+0x208>)
     dc0:	18ba      	adds	r2, r7, r2
     dc2:	6013      	str	r3, [r2, #0]
     dc4:	2300      	movs	r3, #0
     dc6:	4a79      	ldr	r2, [pc, #484]	; (fac <test_pbkdf2_hmac_isha+0x20c>)
     dc8:	18ba      	adds	r2, r7, r2
     dca:	6013      	str	r3, [r2, #0]
     dcc:	2300      	movs	r3, #0
     dce:	229d      	movs	r2, #157	; 0x9d
     dd0:	00d2      	lsls	r2, r2, #3
     dd2:	18ba      	adds	r2, r7, r2
     dd4:	6013      	str	r3, [r2, #0]
     dd6:	e0ca      	b.n	f6e <test_pbkdf2_hmac_isha+0x1ce>
     dd8:	2480      	movs	r4, #128	; 0x80
     dda:	00e4      	lsls	r4, r4, #3
     ddc:	1939      	adds	r1, r7, r4
     dde:	259d      	movs	r5, #157	; 0x9d
     de0:	00ed      	lsls	r5, r5, #3
     de2:	197b      	adds	r3, r7, r5
     de4:	681a      	ldr	r2, [r3, #0]
     de6:	0013      	movs	r3, r2
     de8:	009b      	lsls	r3, r3, #2
     dea:	189b      	adds	r3, r3, r2
     dec:	009b      	lsls	r3, r3, #2
     dee:	585b      	ldr	r3, [r3, r1]
     df0:	0018      	movs	r0, r3
     df2:	f002 fc91 	bl	3718 <strlen>
     df6:	0003      	movs	r3, r0
     df8:	229c      	movs	r2, #156	; 0x9c
     dfa:	00d2      	lsls	r2, r2, #3
     dfc:	18ba      	adds	r2, r7, r2
     dfe:	6013      	str	r3, [r2, #0]
     e00:	1939      	adds	r1, r7, r4
     e02:	197b      	adds	r3, r7, r5
     e04:	681a      	ldr	r2, [r3, #0]
     e06:	0013      	movs	r3, r2
     e08:	009b      	lsls	r3, r3, #2
     e0a:	189b      	adds	r3, r3, r2
     e0c:	009b      	lsls	r3, r3, #2
     e0e:	18cb      	adds	r3, r1, r3
     e10:	3304      	adds	r3, #4
     e12:	681b      	ldr	r3, [r3, #0]
     e14:	0018      	movs	r0, r3
     e16:	f002 fc7f 	bl	3718 <strlen>
     e1a:	0003      	movs	r3, r0
     e1c:	4a64      	ldr	r2, [pc, #400]	; (fb0 <test_pbkdf2_hmac_isha+0x210>)
     e1e:	18ba      	adds	r2, r7, r2
     e20:	6013      	str	r3, [r2, #0]
     e22:	1939      	adds	r1, r7, r4
     e24:	197b      	adds	r3, r7, r5
     e26:	681a      	ldr	r2, [r3, #0]
     e28:	0013      	movs	r3, r2
     e2a:	009b      	lsls	r3, r3, #2
     e2c:	189b      	adds	r3, r3, r2
     e2e:	009b      	lsls	r3, r3, #2
     e30:	18cb      	adds	r3, r1, r3
     e32:	330c      	adds	r3, #12
     e34:	681a      	ldr	r2, [r3, #0]
     e36:	2380      	movs	r3, #128	; 0x80
     e38:	009b      	lsls	r3, r3, #2
     e3a:	429a      	cmp	r2, r3
     e3c:	d903      	bls.n	e46 <test_pbkdf2_hmac_isha+0xa6>
     e3e:	4b5d      	ldr	r3, [pc, #372]	; (fb4 <test_pbkdf2_hmac_isha+0x214>)
     e40:	0018      	movs	r0, r3
     e42:	f001 fa5f 	bl	2304 <__assertion_failed>
     e46:	2580      	movs	r5, #128	; 0x80
     e48:	00ed      	lsls	r5, r5, #3
     e4a:	1979      	adds	r1, r7, r5
     e4c:	249d      	movs	r4, #157	; 0x9d
     e4e:	00e4      	lsls	r4, r4, #3
     e50:	193b      	adds	r3, r7, r4
     e52:	681a      	ldr	r2, [r3, #0]
     e54:	0013      	movs	r3, r2
     e56:	009b      	lsls	r3, r3, #2
     e58:	189b      	adds	r3, r3, r2
     e5a:	009b      	lsls	r3, r3, #2
     e5c:	18cb      	adds	r3, r1, r3
     e5e:	3310      	adds	r3, #16
     e60:	6818      	ldr	r0, [r3, #0]
     e62:	1979      	adds	r1, r7, r5
     e64:	193b      	adds	r3, r7, r4
     e66:	681a      	ldr	r2, [r3, #0]
     e68:	0013      	movs	r3, r2
     e6a:	009b      	lsls	r3, r3, #2
     e6c:	189b      	adds	r3, r3, r2
     e6e:	009b      	lsls	r3, r3, #2
     e70:	18cb      	adds	r3, r1, r3
     e72:	330c      	adds	r3, #12
     e74:	681a      	ldr	r2, [r3, #0]
     e76:	2380      	movs	r3, #128	; 0x80
     e78:	009b      	lsls	r3, r3, #2
     e7a:	18fb      	adds	r3, r7, r3
     e7c:	0001      	movs	r1, r0
     e7e:	0018      	movs	r0, r3
     e80:	f002 ffcc 	bl	3e1c <hexstr_to_bytes>
     e84:	002e      	movs	r6, r5
     e86:	1979      	adds	r1, r7, r5
     e88:	0020      	movs	r0, r4
     e8a:	183a      	adds	r2, r7, r0
     e8c:	6812      	ldr	r2, [r2, #0]
     e8e:	0013      	movs	r3, r2
     e90:	009b      	lsls	r3, r3, #2
     e92:	189b      	adds	r3, r3, r2
     e94:	009b      	lsls	r3, r3, #2
     e96:	585c      	ldr	r4, [r3, r1]
     e98:	229c      	movs	r2, #156	; 0x9c
     e9a:	00d2      	lsls	r2, r2, #3
     e9c:	18ba      	adds	r2, r7, r2
     e9e:	6815      	ldr	r5, [r2, #0]
     ea0:	19b9      	adds	r1, r7, r6
     ea2:	183a      	adds	r2, r7, r0
     ea4:	6812      	ldr	r2, [r2, #0]
     ea6:	0013      	movs	r3, r2
     ea8:	009b      	lsls	r3, r3, #2
     eaa:	189b      	adds	r3, r3, r2
     eac:	009b      	lsls	r3, r3, #2
     eae:	18cb      	adds	r3, r1, r3
     eb0:	3304      	adds	r3, #4
     eb2:	681e      	ldr	r6, [r3, #0]
     eb4:	4a3e      	ldr	r2, [pc, #248]	; (fb0 <test_pbkdf2_hmac_isha+0x210>)
     eb6:	18ba      	adds	r2, r7, r2
     eb8:	6812      	ldr	r2, [r2, #0]
     eba:	4694      	mov	ip, r2
     ebc:	2380      	movs	r3, #128	; 0x80
     ebe:	00db      	lsls	r3, r3, #3
     ec0:	18f9      	adds	r1, r7, r3
     ec2:	183a      	adds	r2, r7, r0
     ec4:	6812      	ldr	r2, [r2, #0]
     ec6:	0013      	movs	r3, r2
     ec8:	009b      	lsls	r3, r3, #2
     eca:	189b      	adds	r3, r3, r2
     ecc:	009b      	lsls	r3, r3, #2
     ece:	18cb      	adds	r3, r1, r3
     ed0:	3308      	adds	r3, #8
     ed2:	6819      	ldr	r1, [r3, #0]
     ed4:	2280      	movs	r2, #128	; 0x80
     ed6:	00d2      	lsls	r2, r2, #3
     ed8:	18b8      	adds	r0, r7, r2
     eda:	239d      	movs	r3, #157	; 0x9d
     edc:	00db      	lsls	r3, r3, #3
     ede:	18fa      	adds	r2, r7, r3
     ee0:	6812      	ldr	r2, [r2, #0]
     ee2:	0013      	movs	r3, r2
     ee4:	009b      	lsls	r3, r3, #2
     ee6:	189b      	adds	r3, r3, r2
     ee8:	009b      	lsls	r3, r3, #2
     eea:	18c3      	adds	r3, r0, r3
     eec:	330c      	adds	r3, #12
     eee:	681b      	ldr	r3, [r3, #0]
     ef0:	003a      	movs	r2, r7
     ef2:	9202      	str	r2, [sp, #8]
     ef4:	9301      	str	r3, [sp, #4]
     ef6:	9100      	str	r1, [sp, #0]
     ef8:	4663      	mov	r3, ip
     efa:	0032      	movs	r2, r6
     efc:	0029      	movs	r1, r5
     efe:	0020      	movs	r0, r4
     f00:	f7ff fd0a 	bl	918 <pbkdf2_hmac_isha>
     f04:	2280      	movs	r2, #128	; 0x80
     f06:	00d2      	lsls	r2, r2, #3
     f08:	18b9      	adds	r1, r7, r2
     f0a:	249d      	movs	r4, #157	; 0x9d
     f0c:	00e4      	lsls	r4, r4, #3
     f0e:	193a      	adds	r2, r7, r4
     f10:	6812      	ldr	r2, [r2, #0]
     f12:	0013      	movs	r3, r2
     f14:	009b      	lsls	r3, r3, #2
     f16:	189b      	adds	r3, r3, r2
     f18:	009b      	lsls	r3, r3, #2
     f1a:	18cb      	adds	r3, r1, r3
     f1c:	330c      	adds	r3, #12
     f1e:	681a      	ldr	r2, [r3, #0]
     f20:	2380      	movs	r3, #128	; 0x80
     f22:	009b      	lsls	r3, r3, #2
     f24:	18f9      	adds	r1, r7, r3
     f26:	003b      	movs	r3, r7
     f28:	0018      	movs	r0, r3
     f2a:	f002 ff56 	bl	3dda <cmp_bin>
     f2e:	1e03      	subs	r3, r0, #0
     f30:	d00d      	beq.n	f4e <test_pbkdf2_hmac_isha+0x1ae>
     f32:	193b      	adds	r3, r7, r4
     f34:	681a      	ldr	r2, [r3, #0]
     f36:	4920      	ldr	r1, [pc, #128]	; (fb8 <test_pbkdf2_hmac_isha+0x218>)
     f38:	4b20      	ldr	r3, [pc, #128]	; (fbc <test_pbkdf2_hmac_isha+0x21c>)
     f3a:	0018      	movs	r0, r3
     f3c:	f002 fb88 	bl	3650 <_printf>
     f40:	4a1a      	ldr	r2, [pc, #104]	; (fac <test_pbkdf2_hmac_isha+0x20c>)
     f42:	18bb      	adds	r3, r7, r2
     f44:	681b      	ldr	r3, [r3, #0]
     f46:	3301      	adds	r3, #1
     f48:	18ba      	adds	r2, r7, r2
     f4a:	6013      	str	r3, [r2, #0]
     f4c:	e008      	b.n	f60 <test_pbkdf2_hmac_isha+0x1c0>
     f4e:	239d      	movs	r3, #157	; 0x9d
     f50:	00db      	lsls	r3, r3, #3
     f52:	18fb      	adds	r3, r7, r3
     f54:	681a      	ldr	r2, [r3, #0]
     f56:	4918      	ldr	r1, [pc, #96]	; (fb8 <test_pbkdf2_hmac_isha+0x218>)
     f58:	4b19      	ldr	r3, [pc, #100]	; (fc0 <test_pbkdf2_hmac_isha+0x220>)
     f5a:	0018      	movs	r0, r3
     f5c:	f002 fb78 	bl	3650 <_printf>
     f60:	229d      	movs	r2, #157	; 0x9d
     f62:	00d2      	lsls	r2, r2, #3
     f64:	18bb      	adds	r3, r7, r2
     f66:	681b      	ldr	r3, [r3, #0]
     f68:	3301      	adds	r3, #1
     f6a:	18ba      	adds	r2, r7, r2
     f6c:	6013      	str	r3, [r2, #0]
     f6e:	239d      	movs	r3, #157	; 0x9d
     f70:	00db      	lsls	r3, r3, #3
     f72:	18fb      	adds	r3, r7, r3
     f74:	681a      	ldr	r2, [r3, #0]
     f76:	490c      	ldr	r1, [pc, #48]	; (fa8 <test_pbkdf2_hmac_isha+0x208>)
     f78:	187b      	adds	r3, r7, r1
     f7a:	681b      	ldr	r3, [r3, #0]
     f7c:	429a      	cmp	r2, r3
     f7e:	da00      	bge.n	f82 <test_pbkdf2_hmac_isha+0x1e2>
     f80:	e72a      	b.n	dd8 <test_pbkdf2_hmac_isha+0x38>
     f82:	187b      	adds	r3, r7, r1
     f84:	681a      	ldr	r2, [r3, #0]
     f86:	4b09      	ldr	r3, [pc, #36]	; (fac <test_pbkdf2_hmac_isha+0x20c>)
     f88:	18fb      	adds	r3, r7, r3
     f8a:	681b      	ldr	r3, [r3, #0]
     f8c:	1ad3      	subs	r3, r2, r3
     f8e:	425a      	negs	r2, r3
     f90:	4153      	adcs	r3, r2
     f92:	b2db      	uxtb	r3, r3
     f94:	0018      	movs	r0, r3
     f96:	46bd      	mov	sp, r7
     f98:	4b0a      	ldr	r3, [pc, #40]	; (fc4 <test_pbkdf2_hmac_isha+0x224>)
     f9a:	449d      	add	sp, r3
     f9c:	bdf0      	pop	{r4, r5, r6, r7, pc}
     f9e:	46c0      	nop			; (mov r8, r8)
     fa0:	fffffafc 	.word	0xfffffafc
     fa4:	00004ba8 	.word	0x00004ba8
     fa8:	000004e4 	.word	0x000004e4
     fac:	000004ec 	.word	0x000004ec
     fb0:	000004dc 	.word	0x000004dc
     fb4:	00004c84 	.word	0x00004c84
     fb8:	00004cdc 	.word	0x00004cdc
     fbc:	00004b34 	.word	0x00004b34
     fc0:	00004b4c 	.word	0x00004b4c
     fc4:	000004f4 	.word	0x000004f4

00000fc8 <HardFault_Handler>:
     fc8:	2004      	movs	r0, #4
     fca:	4671      	mov	r1, lr
     fcc:	4208      	tst	r0, r1
     fce:	d002      	beq.n	fd6 <_MSP>
     fd0:	f3ef 8009 	mrs	r0, PSP
     fd4:	e001      	b.n	fda <_process>

00000fd6 <_MSP>:
     fd6:	f3ef 8008 	mrs	r0, MSP

00000fda <_process>:
     fda:	6981      	ldr	r1, [r0, #24]
     fdc:	880a      	ldrh	r2, [r1, #0]
     fde:	4b05      	ldr	r3, [pc, #20]	; (ff4 <_semihost_return+0xe>)
     fe0:	429a      	cmp	r2, r3
     fe2:	d000      	beq.n	fe6 <_semihost_return>
     fe4:	e7fe      	b.n	fe4 <_process+0xa>

00000fe6 <_semihost_return>:
     fe6:	3102      	adds	r1, #2
     fe8:	6181      	str	r1, [r0, #24]
     fea:	2120      	movs	r1, #32
     fec:	6001      	str	r1, [r0, #0]
     fee:	4770      	bx	lr
     ff0:	46c0      	nop			; (mov r8, r8)
     ff2:	0000      	.short	0x0000
     ff4:	0000beab 	.word	0x0000beab

00000ff8 <NVIC_EnableIRQ>:
     ff8:	b580      	push	{r7, lr}
     ffa:	b082      	sub	sp, #8
     ffc:	af00      	add	r7, sp, #0
     ffe:	0002      	movs	r2, r0
    1000:	1dfb      	adds	r3, r7, #7
    1002:	701a      	strb	r2, [r3, #0]
    1004:	1dfb      	adds	r3, r7, #7
    1006:	781b      	ldrb	r3, [r3, #0]
    1008:	001a      	movs	r2, r3
    100a:	231f      	movs	r3, #31
    100c:	401a      	ands	r2, r3
    100e:	4b04      	ldr	r3, [pc, #16]	; (1020 <NVIC_EnableIRQ+0x28>)
    1010:	2101      	movs	r1, #1
    1012:	4091      	lsls	r1, r2
    1014:	000a      	movs	r2, r1
    1016:	601a      	str	r2, [r3, #0]
    1018:	46c0      	nop			; (mov r8, r8)
    101a:	46bd      	mov	sp, r7
    101c:	b002      	add	sp, #8
    101e:	bd80      	pop	{r7, pc}
    1020:	e000e100 	.word	0xe000e100

00001024 <NVIC_ClearPendingIRQ>:
    1024:	b580      	push	{r7, lr}
    1026:	b082      	sub	sp, #8
    1028:	af00      	add	r7, sp, #0
    102a:	0002      	movs	r2, r0
    102c:	1dfb      	adds	r3, r7, #7
    102e:	701a      	strb	r2, [r3, #0]
    1030:	1dfb      	adds	r3, r7, #7
    1032:	781b      	ldrb	r3, [r3, #0]
    1034:	001a      	movs	r2, r3
    1036:	231f      	movs	r3, #31
    1038:	4013      	ands	r3, r2
    103a:	4905      	ldr	r1, [pc, #20]	; (1050 <NVIC_ClearPendingIRQ+0x2c>)
    103c:	2201      	movs	r2, #1
    103e:	409a      	lsls	r2, r3
    1040:	23c0      	movs	r3, #192	; 0xc0
    1042:	005b      	lsls	r3, r3, #1
    1044:	50ca      	str	r2, [r1, r3]
    1046:	46c0      	nop			; (mov r8, r8)
    1048:	46bd      	mov	sp, r7
    104a:	b002      	add	sp, #8
    104c:	bd80      	pop	{r7, pc}
    104e:	46c0      	nop			; (mov r8, r8)
    1050:	e000e100 	.word	0xe000e100

00001054 <NVIC_SetPriority>:
    1054:	b590      	push	{r4, r7, lr}
    1056:	b083      	sub	sp, #12
    1058:	af00      	add	r7, sp, #0
    105a:	0002      	movs	r2, r0
    105c:	6039      	str	r1, [r7, #0]
    105e:	1dfb      	adds	r3, r7, #7
    1060:	701a      	strb	r2, [r3, #0]
    1062:	1dfb      	adds	r3, r7, #7
    1064:	781b      	ldrb	r3, [r3, #0]
    1066:	2b7f      	cmp	r3, #127	; 0x7f
    1068:	d932      	bls.n	10d0 <NVIC_SetPriority+0x7c>
    106a:	4a2f      	ldr	r2, [pc, #188]	; (1128 <NVIC_SetPriority+0xd4>)
    106c:	1dfb      	adds	r3, r7, #7
    106e:	781b      	ldrb	r3, [r3, #0]
    1070:	0019      	movs	r1, r3
    1072:	230f      	movs	r3, #15
    1074:	400b      	ands	r3, r1
    1076:	3b08      	subs	r3, #8
    1078:	089b      	lsrs	r3, r3, #2
    107a:	3306      	adds	r3, #6
    107c:	009b      	lsls	r3, r3, #2
    107e:	18d3      	adds	r3, r2, r3
    1080:	3304      	adds	r3, #4
    1082:	681b      	ldr	r3, [r3, #0]
    1084:	1dfa      	adds	r2, r7, #7
    1086:	7812      	ldrb	r2, [r2, #0]
    1088:	0011      	movs	r1, r2
    108a:	2203      	movs	r2, #3
    108c:	400a      	ands	r2, r1
    108e:	00d2      	lsls	r2, r2, #3
    1090:	21ff      	movs	r1, #255	; 0xff
    1092:	4091      	lsls	r1, r2
    1094:	000a      	movs	r2, r1
    1096:	43d2      	mvns	r2, r2
    1098:	401a      	ands	r2, r3
    109a:	0011      	movs	r1, r2
    109c:	683b      	ldr	r3, [r7, #0]
    109e:	019b      	lsls	r3, r3, #6
    10a0:	22ff      	movs	r2, #255	; 0xff
    10a2:	401a      	ands	r2, r3
    10a4:	1dfb      	adds	r3, r7, #7
    10a6:	781b      	ldrb	r3, [r3, #0]
    10a8:	0018      	movs	r0, r3
    10aa:	2303      	movs	r3, #3
    10ac:	4003      	ands	r3, r0
    10ae:	00db      	lsls	r3, r3, #3
    10b0:	409a      	lsls	r2, r3
    10b2:	481d      	ldr	r0, [pc, #116]	; (1128 <NVIC_SetPriority+0xd4>)
    10b4:	1dfb      	adds	r3, r7, #7
    10b6:	781b      	ldrb	r3, [r3, #0]
    10b8:	001c      	movs	r4, r3
    10ba:	230f      	movs	r3, #15
    10bc:	4023      	ands	r3, r4
    10be:	3b08      	subs	r3, #8
    10c0:	089b      	lsrs	r3, r3, #2
    10c2:	430a      	orrs	r2, r1
    10c4:	3306      	adds	r3, #6
    10c6:	009b      	lsls	r3, r3, #2
    10c8:	18c3      	adds	r3, r0, r3
    10ca:	3304      	adds	r3, #4
    10cc:	601a      	str	r2, [r3, #0]
    10ce:	e027      	b.n	1120 <NVIC_SetPriority+0xcc>
    10d0:	4a16      	ldr	r2, [pc, #88]	; (112c <NVIC_SetPriority+0xd8>)
    10d2:	1dfb      	adds	r3, r7, #7
    10d4:	781b      	ldrb	r3, [r3, #0]
    10d6:	b25b      	sxtb	r3, r3
    10d8:	089b      	lsrs	r3, r3, #2
    10da:	33c0      	adds	r3, #192	; 0xc0
    10dc:	009b      	lsls	r3, r3, #2
    10de:	589b      	ldr	r3, [r3, r2]
    10e0:	1dfa      	adds	r2, r7, #7
    10e2:	7812      	ldrb	r2, [r2, #0]
    10e4:	0011      	movs	r1, r2
    10e6:	2203      	movs	r2, #3
    10e8:	400a      	ands	r2, r1
    10ea:	00d2      	lsls	r2, r2, #3
    10ec:	21ff      	movs	r1, #255	; 0xff
    10ee:	4091      	lsls	r1, r2
    10f0:	000a      	movs	r2, r1
    10f2:	43d2      	mvns	r2, r2
    10f4:	401a      	ands	r2, r3
    10f6:	0011      	movs	r1, r2
    10f8:	683b      	ldr	r3, [r7, #0]
    10fa:	019b      	lsls	r3, r3, #6
    10fc:	22ff      	movs	r2, #255	; 0xff
    10fe:	401a      	ands	r2, r3
    1100:	1dfb      	adds	r3, r7, #7
    1102:	781b      	ldrb	r3, [r3, #0]
    1104:	0018      	movs	r0, r3
    1106:	2303      	movs	r3, #3
    1108:	4003      	ands	r3, r0
    110a:	00db      	lsls	r3, r3, #3
    110c:	409a      	lsls	r2, r3
    110e:	4807      	ldr	r0, [pc, #28]	; (112c <NVIC_SetPriority+0xd8>)
    1110:	1dfb      	adds	r3, r7, #7
    1112:	781b      	ldrb	r3, [r3, #0]
    1114:	b25b      	sxtb	r3, r3
    1116:	089b      	lsrs	r3, r3, #2
    1118:	430a      	orrs	r2, r1
    111a:	33c0      	adds	r3, #192	; 0xc0
    111c:	009b      	lsls	r3, r3, #2
    111e:	501a      	str	r2, [r3, r0]
    1120:	46c0      	nop			; (mov r8, r8)
    1122:	46bd      	mov	sp, r7
    1124:	b003      	add	sp, #12
    1126:	bd90      	pop	{r4, r7, pc}
    1128:	e000ed00 	.word	0xe000ed00
    112c:	e000e100 	.word	0xe000e100

00001130 <init_ticktime>:
    1130:	b580      	push	{r7, lr}
    1132:	af00      	add	r7, sp, #0
    1134:	4b15      	ldr	r3, [pc, #84]	; (118c <init_ticktime+0x5c>)
    1136:	2296      	movs	r2, #150	; 0x96
    1138:	0052      	lsls	r2, r2, #1
    113a:	605a      	str	r2, [r3, #4]
    113c:	2301      	movs	r3, #1
    113e:	425b      	negs	r3, r3
    1140:	2103      	movs	r1, #3
    1142:	0018      	movs	r0, r3
    1144:	f7ff ff86 	bl	1054 <NVIC_SetPriority>
    1148:	2301      	movs	r3, #1
    114a:	425b      	negs	r3, r3
    114c:	0018      	movs	r0, r3
    114e:	f7ff ff69 	bl	1024 <NVIC_ClearPendingIRQ>
    1152:	2301      	movs	r3, #1
    1154:	425b      	negs	r3, r3
    1156:	0018      	movs	r0, r3
    1158:	f7ff ff4e 	bl	ff8 <NVIC_EnableIRQ>
    115c:	4b0b      	ldr	r3, [pc, #44]	; (118c <init_ticktime+0x5c>)
    115e:	2200      	movs	r2, #0
    1160:	609a      	str	r2, [r3, #8]
    1162:	4b0a      	ldr	r3, [pc, #40]	; (118c <init_ticktime+0x5c>)
    1164:	681a      	ldr	r2, [r3, #0]
    1166:	4b09      	ldr	r3, [pc, #36]	; (118c <init_ticktime+0x5c>)
    1168:	2104      	movs	r1, #4
    116a:	438a      	bics	r2, r1
    116c:	601a      	str	r2, [r3, #0]
    116e:	4b07      	ldr	r3, [pc, #28]	; (118c <init_ticktime+0x5c>)
    1170:	681a      	ldr	r2, [r3, #0]
    1172:	4b06      	ldr	r3, [pc, #24]	; (118c <init_ticktime+0x5c>)
    1174:	2103      	movs	r1, #3
    1176:	430a      	orrs	r2, r1
    1178:	601a      	str	r2, [r3, #0]
    117a:	4b05      	ldr	r3, [pc, #20]	; (1190 <init_ticktime+0x60>)
    117c:	2200      	movs	r2, #0
    117e:	601a      	str	r2, [r3, #0]
    1180:	4b04      	ldr	r3, [pc, #16]	; (1194 <init_ticktime+0x64>)
    1182:	2200      	movs	r2, #0
    1184:	601a      	str	r2, [r3, #0]
    1186:	46c0      	nop			; (mov r8, r8)
    1188:	46bd      	mov	sp, r7
    118a:	bd80      	pop	{r7, pc}
    118c:	e000e010 	.word	0xe000e010
    1190:	1ffff098 	.word	0x1ffff098
    1194:	1ffff09c 	.word	0x1ffff09c

00001198 <SysTick_Handler>:
    1198:	b580      	push	{r7, lr}
    119a:	af00      	add	r7, sp, #0
    119c:	4b03      	ldr	r3, [pc, #12]	; (11ac <SysTick_Handler+0x14>)
    119e:	681b      	ldr	r3, [r3, #0]
    11a0:	1c5a      	adds	r2, r3, #1
    11a2:	4b02      	ldr	r3, [pc, #8]	; (11ac <SysTick_Handler+0x14>)
    11a4:	601a      	str	r2, [r3, #0]
    11a6:	46c0      	nop			; (mov r8, r8)
    11a8:	46bd      	mov	sp, r7
    11aa:	bd80      	pop	{r7, pc}
    11ac:	1ffff098 	.word	0x1ffff098

000011b0 <reset_timer>:
    11b0:	b580      	push	{r7, lr}
    11b2:	af00      	add	r7, sp, #0
    11b4:	4b03      	ldr	r3, [pc, #12]	; (11c4 <reset_timer+0x14>)
    11b6:	681a      	ldr	r2, [r3, #0]
    11b8:	4b03      	ldr	r3, [pc, #12]	; (11c8 <reset_timer+0x18>)
    11ba:	601a      	str	r2, [r3, #0]
    11bc:	46c0      	nop			; (mov r8, r8)
    11be:	46bd      	mov	sp, r7
    11c0:	bd80      	pop	{r7, pc}
    11c2:	46c0      	nop			; (mov r8, r8)
    11c4:	1ffff098 	.word	0x1ffff098
    11c8:	1ffff09c 	.word	0x1ffff09c

000011cc <get_timer>:
    11cc:	b580      	push	{r7, lr}
    11ce:	af00      	add	r7, sp, #0
    11d0:	4b03      	ldr	r3, [pc, #12]	; (11e0 <get_timer+0x14>)
    11d2:	681a      	ldr	r2, [r3, #0]
    11d4:	4b03      	ldr	r3, [pc, #12]	; (11e4 <get_timer+0x18>)
    11d6:	681b      	ldr	r3, [r3, #0]
    11d8:	1ad3      	subs	r3, r2, r3
    11da:	0018      	movs	r0, r3
    11dc:	46bd      	mov	sp, r7
    11de:	bd80      	pop	{r7, pc}
    11e0:	1ffff098 	.word	0x1ffff098
    11e4:	1ffff09c 	.word	0x1ffff09c

000011e8 <CLOCK_SetEr32kClock>:
    11e8:	b580      	push	{r7, lr}
    11ea:	b082      	sub	sp, #8
    11ec:	af00      	add	r7, sp, #0
    11ee:	6078      	str	r0, [r7, #4]
    11f0:	4b08      	ldr	r3, [pc, #32]	; (1214 <CLOCK_SetEr32kClock+0x2c>)
    11f2:	681b      	ldr	r3, [r3, #0]
    11f4:	4a08      	ldr	r2, [pc, #32]	; (1218 <CLOCK_SetEr32kClock+0x30>)
    11f6:	4013      	ands	r3, r2
    11f8:	0019      	movs	r1, r3
    11fa:	687b      	ldr	r3, [r7, #4]
    11fc:	049a      	lsls	r2, r3, #18
    11fe:	23c0      	movs	r3, #192	; 0xc0
    1200:	031b      	lsls	r3, r3, #12
    1202:	401a      	ands	r2, r3
    1204:	4b03      	ldr	r3, [pc, #12]	; (1214 <CLOCK_SetEr32kClock+0x2c>)
    1206:	430a      	orrs	r2, r1
    1208:	601a      	str	r2, [r3, #0]
    120a:	46c0      	nop			; (mov r8, r8)
    120c:	46bd      	mov	sp, r7
    120e:	b002      	add	sp, #8
    1210:	bd80      	pop	{r7, pc}
    1212:	46c0      	nop			; (mov r8, r8)
    1214:	40047000 	.word	0x40047000
    1218:	fff3ffff 	.word	0xfff3ffff

0000121c <CLOCK_SetPllFllSelClock>:
    121c:	b580      	push	{r7, lr}
    121e:	b082      	sub	sp, #8
    1220:	af00      	add	r7, sp, #0
    1222:	6078      	str	r0, [r7, #4]
    1224:	4a08      	ldr	r2, [pc, #32]	; (1248 <CLOCK_SetPllFllSelClock+0x2c>)
    1226:	4b09      	ldr	r3, [pc, #36]	; (124c <CLOCK_SetPllFllSelClock+0x30>)
    1228:	58d3      	ldr	r3, [r2, r3]
    122a:	4a09      	ldr	r2, [pc, #36]	; (1250 <CLOCK_SetPllFllSelClock+0x34>)
    122c:	401a      	ands	r2, r3
    122e:	687b      	ldr	r3, [r7, #4]
    1230:	0419      	lsls	r1, r3, #16
    1232:	2380      	movs	r3, #128	; 0x80
    1234:	025b      	lsls	r3, r3, #9
    1236:	400b      	ands	r3, r1
    1238:	4903      	ldr	r1, [pc, #12]	; (1248 <CLOCK_SetPllFllSelClock+0x2c>)
    123a:	4313      	orrs	r3, r2
    123c:	4a03      	ldr	r2, [pc, #12]	; (124c <CLOCK_SetPllFllSelClock+0x30>)
    123e:	508b      	str	r3, [r1, r2]
    1240:	46c0      	nop			; (mov r8, r8)
    1242:	46bd      	mov	sp, r7
    1244:	b002      	add	sp, #8
    1246:	bd80      	pop	{r7, pc}
    1248:	40047000 	.word	0x40047000
    124c:	00001004 	.word	0x00001004
    1250:	fffeffff 	.word	0xfffeffff

00001254 <CLOCK_GetMcgExtClkFreq>:
    1254:	b580      	push	{r7, lr}
    1256:	af00      	add	r7, sp, #0
    1258:	4b06      	ldr	r3, [pc, #24]	; (1274 <CLOCK_GetMcgExtClkFreq+0x20>)
    125a:	681b      	ldr	r3, [r3, #0]
    125c:	2b00      	cmp	r3, #0
    125e:	d103      	bne.n	1268 <CLOCK_GetMcgExtClkFreq+0x14>
    1260:	4b05      	ldr	r3, [pc, #20]	; (1278 <CLOCK_GetMcgExtClkFreq+0x24>)
    1262:	0018      	movs	r0, r3
    1264:	f001 f84e 	bl	2304 <__assertion_failed>
    1268:	4b02      	ldr	r3, [pc, #8]	; (1274 <CLOCK_GetMcgExtClkFreq+0x20>)
    126a:	681b      	ldr	r3, [r3, #0]
    126c:	0018      	movs	r0, r3
    126e:	46bd      	mov	sp, r7
    1270:	bd80      	pop	{r7, pc}
    1272:	46c0      	nop			; (mov r8, r8)
    1274:	1ffff0a0 	.word	0x1ffff0a0
    1278:	00004cf4 	.word	0x00004cf4

0000127c <CLOCK_GetFllExtRefClkFreq>:
    127c:	b580      	push	{r7, lr}
    127e:	b082      	sub	sp, #8
    1280:	af00      	add	r7, sp, #0
    1282:	f7ff ffe7 	bl	1254 <CLOCK_GetMcgExtClkFreq>
    1286:	0003      	movs	r3, r0
    1288:	607b      	str	r3, [r7, #4]
    128a:	687b      	ldr	r3, [r7, #4]
    128c:	2b00      	cmp	r3, #0
    128e:	d101      	bne.n	1294 <CLOCK_GetFllExtRefClkFreq+0x18>
    1290:	687b      	ldr	r3, [r7, #4]
    1292:	e041      	b.n	1318 <CLOCK_GetFllExtRefClkFreq+0x9c>
    1294:	4b22      	ldr	r3, [pc, #136]	; (1320 <CLOCK_GetFllExtRefClkFreq+0xa4>)
    1296:	781b      	ldrb	r3, [r3, #0]
    1298:	b2db      	uxtb	r3, r3
    129a:	08db      	lsrs	r3, r3, #3
    129c:	b2da      	uxtb	r2, r3
    129e:	1cfb      	adds	r3, r7, #3
    12a0:	2107      	movs	r1, #7
    12a2:	400a      	ands	r2, r1
    12a4:	701a      	strb	r2, [r3, #0]
    12a6:	1cfb      	adds	r3, r7, #3
    12a8:	781b      	ldrb	r3, [r3, #0]
    12aa:	687a      	ldr	r2, [r7, #4]
    12ac:	40da      	lsrs	r2, r3
    12ae:	0013      	movs	r3, r2
    12b0:	607b      	str	r3, [r7, #4]
    12b2:	4b1b      	ldr	r3, [pc, #108]	; (1320 <CLOCK_GetFllExtRefClkFreq+0xa4>)
    12b4:	785b      	ldrb	r3, [r3, #1]
    12b6:	b2db      	uxtb	r3, r3
    12b8:	091b      	lsrs	r3, r3, #4
    12ba:	b2da      	uxtb	r2, r3
    12bc:	1cbb      	adds	r3, r7, #2
    12be:	2103      	movs	r1, #3
    12c0:	400a      	ands	r2, r1
    12c2:	701a      	strb	r2, [r3, #0]
    12c4:	1cbb      	adds	r3, r7, #2
    12c6:	781b      	ldrb	r3, [r3, #0]
    12c8:	2b00      	cmp	r3, #0
    12ca:	d023      	beq.n	1314 <CLOCK_GetFllExtRefClkFreq+0x98>
    12cc:	1cfb      	adds	r3, r7, #3
    12ce:	781b      	ldrb	r3, [r3, #0]
    12d0:	2b07      	cmp	r3, #7
    12d2:	d014      	beq.n	12fe <CLOCK_GetFllExtRefClkFreq+0x82>
    12d4:	dc1b      	bgt.n	130e <CLOCK_GetFllExtRefClkFreq+0x92>
    12d6:	2b05      	cmp	r3, #5
    12d8:	dc02      	bgt.n	12e0 <CLOCK_GetFllExtRefClkFreq+0x64>
    12da:	2b00      	cmp	r3, #0
    12dc:	da03      	bge.n	12e6 <CLOCK_GetFllExtRefClkFreq+0x6a>
    12de:	e016      	b.n	130e <CLOCK_GetFllExtRefClkFreq+0x92>
    12e0:	2b06      	cmp	r3, #6
    12e2:	d004      	beq.n	12ee <CLOCK_GetFllExtRefClkFreq+0x72>
    12e4:	e013      	b.n	130e <CLOCK_GetFllExtRefClkFreq+0x92>
    12e6:	687b      	ldr	r3, [r7, #4]
    12e8:	095b      	lsrs	r3, r3, #5
    12ea:	607b      	str	r3, [r7, #4]
    12ec:	e013      	b.n	1316 <CLOCK_GetFllExtRefClkFreq+0x9a>
    12ee:	687b      	ldr	r3, [r7, #4]
    12f0:	2114      	movs	r1, #20
    12f2:	0018      	movs	r0, r3
    12f4:	f002 feb8 	bl	4068 <__aeabi_uidiv>
    12f8:	0003      	movs	r3, r0
    12fa:	607b      	str	r3, [r7, #4]
    12fc:	e00b      	b.n	1316 <CLOCK_GetFllExtRefClkFreq+0x9a>
    12fe:	687b      	ldr	r3, [r7, #4]
    1300:	210c      	movs	r1, #12
    1302:	0018      	movs	r0, r3
    1304:	f002 feb0 	bl	4068 <__aeabi_uidiv>
    1308:	0003      	movs	r3, r0
    130a:	607b      	str	r3, [r7, #4]
    130c:	e003      	b.n	1316 <CLOCK_GetFllExtRefClkFreq+0x9a>
    130e:	2300      	movs	r3, #0
    1310:	607b      	str	r3, [r7, #4]
    1312:	e000      	b.n	1316 <CLOCK_GetFllExtRefClkFreq+0x9a>
    1314:	46c0      	nop			; (mov r8, r8)
    1316:	687b      	ldr	r3, [r7, #4]
    1318:	0018      	movs	r0, r3
    131a:	46bd      	mov	sp, r7
    131c:	b002      	add	sp, #8
    131e:	bd80      	pop	{r7, pc}
    1320:	40064000 	.word	0x40064000

00001324 <CLOCK_GetFllRefClkFreq>:
    1324:	b580      	push	{r7, lr}
    1326:	af00      	add	r7, sp, #0
    1328:	4b07      	ldr	r3, [pc, #28]	; (1348 <CLOCK_GetFllRefClkFreq+0x24>)
    132a:	799b      	ldrb	r3, [r3, #6]
    132c:	b2db      	uxtb	r3, r3
    132e:	001a      	movs	r2, r3
    1330:	2310      	movs	r3, #16
    1332:	4013      	ands	r3, r2
    1334:	d103      	bne.n	133e <CLOCK_GetFllRefClkFreq+0x1a>
    1336:	f7ff ffa1 	bl	127c <CLOCK_GetFllExtRefClkFreq>
    133a:	0003      	movs	r3, r0
    133c:	e001      	b.n	1342 <CLOCK_GetFllRefClkFreq+0x1e>
    133e:	4b03      	ldr	r3, [pc, #12]	; (134c <CLOCK_GetFllRefClkFreq+0x28>)
    1340:	681b      	ldr	r3, [r3, #0]
    1342:	0018      	movs	r0, r3
    1344:	46bd      	mov	sp, r7
    1346:	bd80      	pop	{r7, pc}
    1348:	40064000 	.word	0x40064000
    134c:	1ffff080 	.word	0x1ffff080

00001350 <CLOCK_GetOscRangeFromFreq>:
    1350:	b580      	push	{r7, lr}
    1352:	b084      	sub	sp, #16
    1354:	af00      	add	r7, sp, #0
    1356:	6078      	str	r0, [r7, #4]
    1358:	687b      	ldr	r3, [r7, #4]
    135a:	4a0e      	ldr	r2, [pc, #56]	; (1394 <CLOCK_GetOscRangeFromFreq+0x44>)
    135c:	4293      	cmp	r3, r2
    135e:	d804      	bhi.n	136a <CLOCK_GetOscRangeFromFreq+0x1a>
    1360:	230f      	movs	r3, #15
    1362:	18fb      	adds	r3, r7, r3
    1364:	2200      	movs	r2, #0
    1366:	701a      	strb	r2, [r3, #0]
    1368:	e00c      	b.n	1384 <CLOCK_GetOscRangeFromFreq+0x34>
    136a:	687b      	ldr	r3, [r7, #4]
    136c:	4a0a      	ldr	r2, [pc, #40]	; (1398 <CLOCK_GetOscRangeFromFreq+0x48>)
    136e:	4293      	cmp	r3, r2
    1370:	d804      	bhi.n	137c <CLOCK_GetOscRangeFromFreq+0x2c>
    1372:	230f      	movs	r3, #15
    1374:	18fb      	adds	r3, r7, r3
    1376:	2201      	movs	r2, #1
    1378:	701a      	strb	r2, [r3, #0]
    137a:	e003      	b.n	1384 <CLOCK_GetOscRangeFromFreq+0x34>
    137c:	230f      	movs	r3, #15
    137e:	18fb      	adds	r3, r7, r3
    1380:	2202      	movs	r2, #2
    1382:	701a      	strb	r2, [r3, #0]
    1384:	230f      	movs	r3, #15
    1386:	18fb      	adds	r3, r7, r3
    1388:	781b      	ldrb	r3, [r3, #0]
    138a:	0018      	movs	r0, r3
    138c:	46bd      	mov	sp, r7
    138e:	b004      	add	sp, #16
    1390:	bd80      	pop	{r7, pc}
    1392:	46c0      	nop			; (mov r8, r8)
    1394:	00009897 	.word	0x00009897
    1398:	007a1200 	.word	0x007a1200

0000139c <CLOCK_GetPllFllSelClkFreq>:
    139c:	b580      	push	{r7, lr}
    139e:	b082      	sub	sp, #8
    13a0:	af00      	add	r7, sp, #0
    13a2:	4a0f      	ldr	r2, [pc, #60]	; (13e0 <CLOCK_GetPllFllSelClkFreq+0x44>)
    13a4:	4b0f      	ldr	r3, [pc, #60]	; (13e4 <CLOCK_GetPllFllSelClkFreq+0x48>)
    13a6:	58d3      	ldr	r3, [r2, r3]
    13a8:	0c1b      	lsrs	r3, r3, #16
    13aa:	2201      	movs	r2, #1
    13ac:	4013      	ands	r3, r2
    13ae:	d002      	beq.n	13b6 <CLOCK_GetPllFllSelClkFreq+0x1a>
    13b0:	2b01      	cmp	r3, #1
    13b2:	d005      	beq.n	13c0 <CLOCK_GetPllFllSelClkFreq+0x24>
    13b4:	e00c      	b.n	13d0 <CLOCK_GetPllFllSelClkFreq+0x34>
    13b6:	f000 f833 	bl	1420 <CLOCK_GetFllFreq>
    13ba:	0003      	movs	r3, r0
    13bc:	607b      	str	r3, [r7, #4]
    13be:	e00a      	b.n	13d6 <CLOCK_GetPllFllSelClkFreq+0x3a>
    13c0:	f000 f870 	bl	14a4 <CLOCK_GetPll0Freq>
    13c4:	0003      	movs	r3, r0
    13c6:	607b      	str	r3, [r7, #4]
    13c8:	687b      	ldr	r3, [r7, #4]
    13ca:	085b      	lsrs	r3, r3, #1
    13cc:	607b      	str	r3, [r7, #4]
    13ce:	e002      	b.n	13d6 <CLOCK_GetPllFllSelClkFreq+0x3a>
    13d0:	2300      	movs	r3, #0
    13d2:	607b      	str	r3, [r7, #4]
    13d4:	46c0      	nop			; (mov r8, r8)
    13d6:	687b      	ldr	r3, [r7, #4]
    13d8:	0018      	movs	r0, r3
    13da:	46bd      	mov	sp, r7
    13dc:	b002      	add	sp, #8
    13de:	bd80      	pop	{r7, pc}
    13e0:	40047000 	.word	0x40047000
    13e4:	00001004 	.word	0x00001004

000013e8 <CLOCK_SetSimConfig>:
    13e8:	b580      	push	{r7, lr}
    13ea:	b082      	sub	sp, #8
    13ec:	af00      	add	r7, sp, #0
    13ee:	6078      	str	r0, [r7, #4]
    13f0:	4909      	ldr	r1, [pc, #36]	; (1418 <CLOCK_SetSimConfig+0x30>)
    13f2:	687b      	ldr	r3, [r7, #4]
    13f4:	685b      	ldr	r3, [r3, #4]
    13f6:	4a09      	ldr	r2, [pc, #36]	; (141c <CLOCK_SetSimConfig+0x34>)
    13f8:	508b      	str	r3, [r1, r2]
    13fa:	687b      	ldr	r3, [r7, #4]
    13fc:	781b      	ldrb	r3, [r3, #0]
    13fe:	0018      	movs	r0, r3
    1400:	f7ff ff0c 	bl	121c <CLOCK_SetPllFllSelClock>
    1404:	687b      	ldr	r3, [r7, #4]
    1406:	785b      	ldrb	r3, [r3, #1]
    1408:	0018      	movs	r0, r3
    140a:	f7ff feed 	bl	11e8 <CLOCK_SetEr32kClock>
    140e:	46c0      	nop			; (mov r8, r8)
    1410:	46bd      	mov	sp, r7
    1412:	b002      	add	sp, #8
    1414:	bd80      	pop	{r7, pc}
    1416:	46c0      	nop			; (mov r8, r8)
    1418:	40047000 	.word	0x40047000
    141c:	00001044 	.word	0x00001044

00001420 <CLOCK_GetFllFreq>:
    1420:	b580      	push	{r7, lr}
    1422:	b082      	sub	sp, #8
    1424:	af00      	add	r7, sp, #0
    1426:	4b1d      	ldr	r3, [pc, #116]	; (149c <CLOCK_GetFllFreq+0x7c>)
    1428:	785b      	ldrb	r3, [r3, #1]
    142a:	b2db      	uxtb	r3, r3
    142c:	001a      	movs	r2, r3
    142e:	2302      	movs	r3, #2
    1430:	4013      	ands	r3, r2
    1432:	d106      	bne.n	1442 <CLOCK_GetFllFreq+0x22>
    1434:	4b19      	ldr	r3, [pc, #100]	; (149c <CLOCK_GetFllFreq+0x7c>)
    1436:	799b      	ldrb	r3, [r3, #6]
    1438:	b2db      	uxtb	r3, r3
    143a:	001a      	movs	r2, r3
    143c:	2320      	movs	r3, #32
    143e:	4013      	ands	r3, r2
    1440:	d001      	beq.n	1446 <CLOCK_GetFllFreq+0x26>
    1442:	2300      	movs	r3, #0
    1444:	e026      	b.n	1494 <CLOCK_GetFllFreq+0x74>
    1446:	f7ff ff6d 	bl	1324 <CLOCK_GetFllRefClkFreq>
    144a:	0003      	movs	r3, r0
    144c:	607b      	str	r3, [r7, #4]
    144e:	687b      	ldr	r3, [r7, #4]
    1450:	2b00      	cmp	r3, #0
    1452:	d101      	bne.n	1458 <CLOCK_GetFllFreq+0x38>
    1454:	687b      	ldr	r3, [r7, #4]
    1456:	e01d      	b.n	1494 <CLOCK_GetFllFreq+0x74>
    1458:	4b10      	ldr	r3, [pc, #64]	; (149c <CLOCK_GetFllFreq+0x7c>)
    145a:	78db      	ldrb	r3, [r3, #3]
    145c:	b2db      	uxtb	r3, r3
    145e:	095b      	lsrs	r3, r3, #5
    1460:	b2da      	uxtb	r2, r3
    1462:	1cfb      	adds	r3, r7, #3
    1464:	2103      	movs	r1, #3
    1466:	400a      	ands	r2, r1
    1468:	701a      	strb	r2, [r3, #0]
    146a:	4b0c      	ldr	r3, [pc, #48]	; (149c <CLOCK_GetFllFreq+0x7c>)
    146c:	78db      	ldrb	r3, [r3, #3]
    146e:	b2db      	uxtb	r3, r3
    1470:	09db      	lsrs	r3, r3, #7
    1472:	b2da      	uxtb	r2, r3
    1474:	1cbb      	adds	r3, r7, #2
    1476:	2101      	movs	r1, #1
    1478:	400a      	ands	r2, r1
    147a:	701a      	strb	r2, [r3, #0]
    147c:	1cfb      	adds	r3, r7, #3
    147e:	7819      	ldrb	r1, [r3, #0]
    1480:	1cbb      	adds	r3, r7, #2
    1482:	781a      	ldrb	r2, [r3, #0]
    1484:	4b06      	ldr	r3, [pc, #24]	; (14a0 <CLOCK_GetFllFreq+0x80>)
    1486:	0049      	lsls	r1, r1, #1
    1488:	188a      	adds	r2, r1, r2
    148a:	0052      	lsls	r2, r2, #1
    148c:	5ad3      	ldrh	r3, [r2, r3]
    148e:	001a      	movs	r2, r3
    1490:	687b      	ldr	r3, [r7, #4]
    1492:	4353      	muls	r3, r2
    1494:	0018      	movs	r0, r3
    1496:	46bd      	mov	sp, r7
    1498:	b002      	add	sp, #8
    149a:	bd80      	pop	{r7, pc}
    149c:	40064000 	.word	0x40064000
    14a0:	00004d88 	.word	0x00004d88

000014a4 <CLOCK_GetPll0Freq>:
    14a4:	b580      	push	{r7, lr}
    14a6:	b082      	sub	sp, #8
    14a8:	af00      	add	r7, sp, #0
    14aa:	4b18      	ldr	r3, [pc, #96]	; (150c <CLOCK_GetPll0Freq+0x68>)
    14ac:	799b      	ldrb	r3, [r3, #6]
    14ae:	b2db      	uxtb	r3, r3
    14b0:	001a      	movs	r2, r3
    14b2:	2340      	movs	r3, #64	; 0x40
    14b4:	4013      	ands	r3, r2
    14b6:	d101      	bne.n	14bc <CLOCK_GetPll0Freq+0x18>
    14b8:	2300      	movs	r3, #0
    14ba:	e023      	b.n	1504 <CLOCK_GetPll0Freq+0x60>
    14bc:	f002 fd20 	bl	3f00 <CLOCK_GetPll0RefFreq>
    14c0:	0003      	movs	r3, r0
    14c2:	607b      	str	r3, [r7, #4]
    14c4:	687b      	ldr	r3, [r7, #4]
    14c6:	2b00      	cmp	r3, #0
    14c8:	d103      	bne.n	14d2 <CLOCK_GetPll0Freq+0x2e>
    14ca:	4b11      	ldr	r3, [pc, #68]	; (1510 <CLOCK_GetPll0Freq+0x6c>)
    14cc:	0018      	movs	r0, r3
    14ce:	f000 ff19 	bl	2304 <__assertion_failed>
    14d2:	4b0e      	ldr	r3, [pc, #56]	; (150c <CLOCK_GetPll0Freq+0x68>)
    14d4:	791b      	ldrb	r3, [r3, #4]
    14d6:	b2db      	uxtb	r3, r3
    14d8:	001a      	movs	r2, r3
    14da:	231f      	movs	r3, #31
    14dc:	4013      	ands	r3, r2
    14de:	3301      	adds	r3, #1
    14e0:	0019      	movs	r1, r3
    14e2:	6878      	ldr	r0, [r7, #4]
    14e4:	f002 fdc0 	bl	4068 <__aeabi_uidiv>
    14e8:	0003      	movs	r3, r0
    14ea:	607b      	str	r3, [r7, #4]
    14ec:	4b07      	ldr	r3, [pc, #28]	; (150c <CLOCK_GetPll0Freq+0x68>)
    14ee:	795b      	ldrb	r3, [r3, #5]
    14f0:	b2db      	uxtb	r3, r3
    14f2:	001a      	movs	r2, r3
    14f4:	231f      	movs	r3, #31
    14f6:	4013      	ands	r3, r2
    14f8:	3318      	adds	r3, #24
    14fa:	001a      	movs	r2, r3
    14fc:	687b      	ldr	r3, [r7, #4]
    14fe:	4353      	muls	r3, r2
    1500:	607b      	str	r3, [r7, #4]
    1502:	687b      	ldr	r3, [r7, #4]
    1504:	0018      	movs	r0, r3
    1506:	46bd      	mov	sp, r7
    1508:	b002      	add	sp, #8
    150a:	bd80      	pop	{r7, pc}
    150c:	40064000 	.word	0x40064000
    1510:	00004d14 	.word	0x00004d14

00001514 <CLOCK_SetInternalRefClkConfig>:
    1514:	b590      	push	{r4, r7, lr}
    1516:	b085      	sub	sp, #20
    1518:	af00      	add	r7, sp, #0
    151a:	0004      	movs	r4, r0
    151c:	0008      	movs	r0, r1
    151e:	0011      	movs	r1, r2
    1520:	1dfb      	adds	r3, r7, #7
    1522:	1c22      	adds	r2, r4, #0
    1524:	701a      	strb	r2, [r3, #0]
    1526:	1dbb      	adds	r3, r7, #6
    1528:	1c02      	adds	r2, r0, #0
    152a:	701a      	strb	r2, [r3, #0]
    152c:	1d7b      	adds	r3, r7, #5
    152e:	1c0a      	adds	r2, r1, #0
    1530:	701a      	strb	r2, [r3, #0]
    1532:	4b40      	ldr	r3, [pc, #256]	; (1634 <CLOCK_SetInternalRefClkConfig+0x120>)
    1534:	799b      	ldrb	r3, [r3, #6]
    1536:	b2db      	uxtb	r3, r3
    1538:	089b      	lsrs	r3, r3, #2
    153a:	2203      	movs	r2, #3
    153c:	4013      	ands	r3, r2
    153e:	60fb      	str	r3, [r7, #12]
    1540:	4b3c      	ldr	r3, [pc, #240]	; (1634 <CLOCK_SetInternalRefClkConfig+0x120>)
    1542:	799b      	ldrb	r3, [r3, #6]
    1544:	b2da      	uxtb	r2, r3
    1546:	200b      	movs	r0, #11
    1548:	183b      	adds	r3, r7, r0
    154a:	2101      	movs	r1, #1
    154c:	400a      	ands	r2, r1
    154e:	701a      	strb	r2, [r3, #0]
    1550:	4b38      	ldr	r3, [pc, #224]	; (1634 <CLOCK_SetInternalRefClkConfig+0x120>)
    1552:	7a1b      	ldrb	r3, [r3, #8]
    1554:	b2db      	uxtb	r3, r3
    1556:	085b      	lsrs	r3, r3, #1
    1558:	b2da      	uxtb	r2, r3
    155a:	240a      	movs	r4, #10
    155c:	193b      	adds	r3, r7, r4
    155e:	2107      	movs	r1, #7
    1560:	400a      	ands	r2, r1
    1562:	701a      	strb	r2, [r3, #0]
    1564:	1d7a      	adds	r2, r7, #5
    1566:	193b      	adds	r3, r7, r4
    1568:	7812      	ldrb	r2, [r2, #0]
    156a:	781b      	ldrb	r3, [r3, #0]
    156c:	429a      	cmp	r2, r3
    156e:	d02e      	beq.n	15ce <CLOCK_SetInternalRefClkConfig+0xba>
    1570:	183b      	adds	r3, r7, r0
    1572:	781b      	ldrb	r3, [r3, #0]
    1574:	2b01      	cmp	r3, #1
    1576:	d119      	bne.n	15ac <CLOCK_SetInternalRefClkConfig+0x98>
    1578:	68fb      	ldr	r3, [r7, #12]
    157a:	2b01      	cmp	r3, #1
    157c:	d006      	beq.n	158c <CLOCK_SetInternalRefClkConfig+0x78>
    157e:	4b2d      	ldr	r3, [pc, #180]	; (1634 <CLOCK_SetInternalRefClkConfig+0x120>)
    1580:	781b      	ldrb	r3, [r3, #0]
    1582:	b2db      	uxtb	r3, r3
    1584:	001a      	movs	r2, r3
    1586:	2302      	movs	r3, #2
    1588:	4013      	ands	r3, r2
    158a:	d00f      	beq.n	15ac <CLOCK_SetInternalRefClkConfig+0x98>
    158c:	4b29      	ldr	r3, [pc, #164]	; (1634 <CLOCK_SetInternalRefClkConfig+0x120>)
    158e:	785b      	ldrb	r3, [r3, #1]
    1590:	b2db      	uxtb	r3, r3
    1592:	4a28      	ldr	r2, [pc, #160]	; (1634 <CLOCK_SetInternalRefClkConfig+0x120>)
    1594:	2101      	movs	r1, #1
    1596:	438b      	bics	r3, r1
    1598:	b2db      	uxtb	r3, r3
    159a:	7053      	strb	r3, [r2, #1]
    159c:	46c0      	nop			; (mov r8, r8)
    159e:	4b25      	ldr	r3, [pc, #148]	; (1634 <CLOCK_SetInternalRefClkConfig+0x120>)
    15a0:	799b      	ldrb	r3, [r3, #6]
    15a2:	b2db      	uxtb	r3, r3
    15a4:	001a      	movs	r2, r3
    15a6:	2301      	movs	r3, #1
    15a8:	4013      	ands	r3, r2
    15aa:	d1f8      	bne.n	159e <CLOCK_SetInternalRefClkConfig+0x8a>
    15ac:	4b21      	ldr	r3, [pc, #132]	; (1634 <CLOCK_SetInternalRefClkConfig+0x120>)
    15ae:	7a1b      	ldrb	r3, [r3, #8]
    15b0:	b2db      	uxtb	r3, r3
    15b2:	222f      	movs	r2, #47	; 0x2f
    15b4:	4393      	bics	r3, r2
    15b6:	b2da      	uxtb	r2, r3
    15b8:	1d7b      	adds	r3, r7, #5
    15ba:	781b      	ldrb	r3, [r3, #0]
    15bc:	18db      	adds	r3, r3, r3
    15be:	b2db      	uxtb	r3, r3
    15c0:	210e      	movs	r1, #14
    15c2:	400b      	ands	r3, r1
    15c4:	b2db      	uxtb	r3, r3
    15c6:	491b      	ldr	r1, [pc, #108]	; (1634 <CLOCK_SetInternalRefClkConfig+0x120>)
    15c8:	4313      	orrs	r3, r2
    15ca:	b2db      	uxtb	r3, r3
    15cc:	720b      	strb	r3, [r1, #8]
    15ce:	4b19      	ldr	r3, [pc, #100]	; (1634 <CLOCK_SetInternalRefClkConfig+0x120>)
    15d0:	785b      	ldrb	r3, [r3, #1]
    15d2:	b2db      	uxtb	r3, r3
    15d4:	2201      	movs	r2, #1
    15d6:	4393      	bics	r3, r2
    15d8:	b2da      	uxtb	r2, r3
    15da:	1dbb      	adds	r3, r7, #6
    15dc:	781b      	ldrb	r3, [r3, #0]
    15de:	2101      	movs	r1, #1
    15e0:	400b      	ands	r3, r1
    15e2:	b2db      	uxtb	r3, r3
    15e4:	4913      	ldr	r1, [pc, #76]	; (1634 <CLOCK_SetInternalRefClkConfig+0x120>)
    15e6:	4313      	orrs	r3, r2
    15e8:	b2db      	uxtb	r3, r3
    15ea:	704b      	strb	r3, [r1, #1]
    15ec:	4b11      	ldr	r3, [pc, #68]	; (1634 <CLOCK_SetInternalRefClkConfig+0x120>)
    15ee:	781b      	ldrb	r3, [r3, #0]
    15f0:	b2db      	uxtb	r3, r3
    15f2:	2203      	movs	r2, #3
    15f4:	4393      	bics	r3, r2
    15f6:	b2da      	uxtb	r2, r3
    15f8:	490e      	ldr	r1, [pc, #56]	; (1634 <CLOCK_SetInternalRefClkConfig+0x120>)
    15fa:	1dfb      	adds	r3, r7, #7
    15fc:	781b      	ldrb	r3, [r3, #0]
    15fe:	4313      	orrs	r3, r2
    1600:	b2db      	uxtb	r3, r3
    1602:	700b      	strb	r3, [r1, #0]
    1604:	68fb      	ldr	r3, [r7, #12]
    1606:	2b01      	cmp	r3, #1
    1608:	d004      	beq.n	1614 <CLOCK_SetInternalRefClkConfig+0x100>
    160a:	1dfb      	adds	r3, r7, #7
    160c:	781b      	ldrb	r3, [r3, #0]
    160e:	2202      	movs	r2, #2
    1610:	4013      	ands	r3, r2
    1612:	d00a      	beq.n	162a <CLOCK_SetInternalRefClkConfig+0x116>
    1614:	46c0      	nop			; (mov r8, r8)
    1616:	4b07      	ldr	r3, [pc, #28]	; (1634 <CLOCK_SetInternalRefClkConfig+0x120>)
    1618:	799b      	ldrb	r3, [r3, #6]
    161a:	b2db      	uxtb	r3, r3
    161c:	001a      	movs	r2, r3
    161e:	2301      	movs	r3, #1
    1620:	401a      	ands	r2, r3
    1622:	1dbb      	adds	r3, r7, #6
    1624:	781b      	ldrb	r3, [r3, #0]
    1626:	429a      	cmp	r2, r3
    1628:	d1f5      	bne.n	1616 <CLOCK_SetInternalRefClkConfig+0x102>
    162a:	2300      	movs	r3, #0
    162c:	0018      	movs	r0, r3
    162e:	46bd      	mov	sp, r7
    1630:	b005      	add	sp, #20
    1632:	bd90      	pop	{r4, r7, pc}
    1634:	40064000 	.word	0x40064000

00001638 <CLOCK_EnablePll0>:
    1638:	b580      	push	{r7, lr}
    163a:	b084      	sub	sp, #16
    163c:	af00      	add	r7, sp, #0
    163e:	6078      	str	r0, [r7, #4]
    1640:	687b      	ldr	r3, [r7, #4]
    1642:	2b00      	cmp	r3, #0
    1644:	d103      	bne.n	164e <CLOCK_EnablePll0+0x16>
    1646:	4b1f      	ldr	r3, [pc, #124]	; (16c4 <CLOCK_EnablePll0+0x8c>)
    1648:	0018      	movs	r0, r3
    164a:	f000 fe5b 	bl	2304 <__assertion_failed>
    164e:	200f      	movs	r0, #15
    1650:	183b      	adds	r3, r7, r0
    1652:	2200      	movs	r2, #0
    1654:	701a      	strb	r2, [r3, #0]
    1656:	687b      	ldr	r3, [r7, #4]
    1658:	785b      	ldrb	r3, [r3, #1]
    165a:	221f      	movs	r2, #31
    165c:	4013      	ands	r3, r2
    165e:	b2d9      	uxtb	r1, r3
    1660:	183b      	adds	r3, r7, r0
    1662:	183a      	adds	r2, r7, r0
    1664:	7812      	ldrb	r2, [r2, #0]
    1666:	430a      	orrs	r2, r1
    1668:	701a      	strb	r2, [r3, #0]
    166a:	4a17      	ldr	r2, [pc, #92]	; (16c8 <CLOCK_EnablePll0+0x90>)
    166c:	183b      	adds	r3, r7, r0
    166e:	781b      	ldrb	r3, [r3, #0]
    1670:	7113      	strb	r3, [r2, #4]
    1672:	4b15      	ldr	r3, [pc, #84]	; (16c8 <CLOCK_EnablePll0+0x90>)
    1674:	795b      	ldrb	r3, [r3, #5]
    1676:	b2db      	uxtb	r3, r3
    1678:	221f      	movs	r2, #31
    167a:	4393      	bics	r3, r2
    167c:	b2da      	uxtb	r2, r3
    167e:	687b      	ldr	r3, [r7, #4]
    1680:	789b      	ldrb	r3, [r3, #2]
    1682:	211f      	movs	r1, #31
    1684:	400b      	ands	r3, r1
    1686:	b2db      	uxtb	r3, r3
    1688:	490f      	ldr	r1, [pc, #60]	; (16c8 <CLOCK_EnablePll0+0x90>)
    168a:	4313      	orrs	r3, r2
    168c:	b2db      	uxtb	r3, r3
    168e:	714b      	strb	r3, [r1, #5]
    1690:	4b0d      	ldr	r3, [pc, #52]	; (16c8 <CLOCK_EnablePll0+0x90>)
    1692:	791b      	ldrb	r3, [r3, #4]
    1694:	b2da      	uxtb	r2, r3
    1696:	687b      	ldr	r3, [r7, #4]
    1698:	781b      	ldrb	r3, [r3, #0]
    169a:	4313      	orrs	r3, r2
    169c:	b2db      	uxtb	r3, r3
    169e:	4a0a      	ldr	r2, [pc, #40]	; (16c8 <CLOCK_EnablePll0+0x90>)
    16a0:	2140      	movs	r1, #64	; 0x40
    16a2:	430b      	orrs	r3, r1
    16a4:	b2db      	uxtb	r3, r3
    16a6:	7113      	strb	r3, [r2, #4]
    16a8:	46c0      	nop			; (mov r8, r8)
    16aa:	4b07      	ldr	r3, [pc, #28]	; (16c8 <CLOCK_EnablePll0+0x90>)
    16ac:	799b      	ldrb	r3, [r3, #6]
    16ae:	b2db      	uxtb	r3, r3
    16b0:	001a      	movs	r2, r3
    16b2:	2340      	movs	r3, #64	; 0x40
    16b4:	4013      	ands	r3, r2
    16b6:	d0f8      	beq.n	16aa <CLOCK_EnablePll0+0x72>
    16b8:	46c0      	nop			; (mov r8, r8)
    16ba:	46c0      	nop			; (mov r8, r8)
    16bc:	46bd      	mov	sp, r7
    16be:	b004      	add	sp, #16
    16c0:	bd80      	pop	{r7, pc}
    16c2:	46c0      	nop			; (mov r8, r8)
    16c4:	00004d34 	.word	0x00004d34
    16c8:	40064000 	.word	0x40064000

000016cc <CLOCK_InitOsc0>:
    16cc:	b5b0      	push	{r4, r5, r7, lr}
    16ce:	b084      	sub	sp, #16
    16d0:	af00      	add	r7, sp, #0
    16d2:	6078      	str	r0, [r7, #4]
    16d4:	687b      	ldr	r3, [r7, #4]
    16d6:	681b      	ldr	r3, [r3, #0]
    16d8:	250f      	movs	r5, #15
    16da:	197c      	adds	r4, r7, r5
    16dc:	0018      	movs	r0, r3
    16de:	f7ff fe37 	bl	1350 <CLOCK_GetOscRangeFromFreq>
    16e2:	0003      	movs	r3, r0
    16e4:	7023      	strb	r3, [r4, #0]
    16e6:	687b      	ldr	r3, [r7, #4]
    16e8:	791b      	ldrb	r3, [r3, #4]
    16ea:	4a1b      	ldr	r2, [pc, #108]	; (1758 <CLOCK_InitOsc0+0x8c>)
    16ec:	0019      	movs	r1, r3
    16ee:	0010      	movs	r0, r2
    16f0:	f002 fbe5 	bl	3ebe <OSC_SetCapLoad>
    16f4:	687b      	ldr	r3, [r7, #4]
    16f6:	3306      	adds	r3, #6
    16f8:	4a17      	ldr	r2, [pc, #92]	; (1758 <CLOCK_InitOsc0+0x8c>)
    16fa:	0019      	movs	r1, r3
    16fc:	0010      	movs	r0, r2
    16fe:	f002 fbbf 	bl	3e80 <OSC_SetExtRefClkConfig>
    1702:	4b16      	ldr	r3, [pc, #88]	; (175c <CLOCK_InitOsc0+0x90>)
    1704:	785b      	ldrb	r3, [r3, #1]
    1706:	b2db      	uxtb	r3, r3
    1708:	223c      	movs	r2, #60	; 0x3c
    170a:	4393      	bics	r3, r2
    170c:	b2da      	uxtb	r2, r3
    170e:	197b      	adds	r3, r7, r5
    1710:	781b      	ldrb	r3, [r3, #0]
    1712:	011b      	lsls	r3, r3, #4
    1714:	b2db      	uxtb	r3, r3
    1716:	2130      	movs	r1, #48	; 0x30
    1718:	400b      	ands	r3, r1
    171a:	b2db      	uxtb	r3, r3
    171c:	4313      	orrs	r3, r2
    171e:	b2da      	uxtb	r2, r3
    1720:	687b      	ldr	r3, [r7, #4]
    1722:	795b      	ldrb	r3, [r3, #5]
    1724:	490d      	ldr	r1, [pc, #52]	; (175c <CLOCK_InitOsc0+0x90>)
    1726:	4313      	orrs	r3, r2
    1728:	b2db      	uxtb	r3, r3
    172a:	704b      	strb	r3, [r1, #1]
    172c:	687b      	ldr	r3, [r7, #4]
    172e:	795b      	ldrb	r3, [r3, #5]
    1730:	2b00      	cmp	r3, #0
    1732:	d00d      	beq.n	1750 <CLOCK_InitOsc0+0x84>
    1734:	4b08      	ldr	r3, [pc, #32]	; (1758 <CLOCK_InitOsc0+0x8c>)
    1736:	781b      	ldrb	r3, [r3, #0]
    1738:	b2db      	uxtb	r3, r3
    173a:	b25b      	sxtb	r3, r3
    173c:	2b00      	cmp	r3, #0
    173e:	da07      	bge.n	1750 <CLOCK_InitOsc0+0x84>
    1740:	46c0      	nop			; (mov r8, r8)
    1742:	4b06      	ldr	r3, [pc, #24]	; (175c <CLOCK_InitOsc0+0x90>)
    1744:	799b      	ldrb	r3, [r3, #6]
    1746:	b2db      	uxtb	r3, r3
    1748:	001a      	movs	r2, r3
    174a:	2302      	movs	r3, #2
    174c:	4013      	ands	r3, r2
    174e:	d0f8      	beq.n	1742 <CLOCK_InitOsc0+0x76>
    1750:	46c0      	nop			; (mov r8, r8)
    1752:	46bd      	mov	sp, r7
    1754:	b004      	add	sp, #16
    1756:	bdb0      	pop	{r4, r5, r7, pc}
    1758:	40065000 	.word	0x40065000
    175c:	40064000 	.word	0x40064000

00001760 <CLOCK_SetPbeMode>:
    1760:	b580      	push	{r7, lr}
    1762:	b082      	sub	sp, #8
    1764:	af00      	add	r7, sp, #0
    1766:	0002      	movs	r2, r0
    1768:	6039      	str	r1, [r7, #0]
    176a:	1dfb      	adds	r3, r7, #7
    176c:	701a      	strb	r2, [r3, #0]
    176e:	683b      	ldr	r3, [r7, #0]
    1770:	2b00      	cmp	r3, #0
    1772:	d103      	bne.n	177c <CLOCK_SetPbeMode+0x1c>
    1774:	4b24      	ldr	r3, [pc, #144]	; (1808 <CLOCK_SetPbeMode+0xa8>)
    1776:	0018      	movs	r0, r3
    1778:	f000 fdc4 	bl	2304 <__assertion_failed>
    177c:	4b23      	ldr	r3, [pc, #140]	; (180c <CLOCK_SetPbeMode+0xac>)
    177e:	785b      	ldrb	r3, [r3, #1]
    1780:	b2db      	uxtb	r3, r3
    1782:	4a22      	ldr	r2, [pc, #136]	; (180c <CLOCK_SetPbeMode+0xac>)
    1784:	2102      	movs	r1, #2
    1786:	438b      	bics	r3, r1
    1788:	b2db      	uxtb	r3, r3
    178a:	7053      	strb	r3, [r2, #1]
    178c:	4b1f      	ldr	r3, [pc, #124]	; (180c <CLOCK_SetPbeMode+0xac>)
    178e:	781b      	ldrb	r3, [r3, #0]
    1790:	b2db      	uxtb	r3, r3
    1792:	223b      	movs	r2, #59	; 0x3b
    1794:	4013      	ands	r3, r2
    1796:	b2db      	uxtb	r3, r3
    1798:	491c      	ldr	r1, [pc, #112]	; (180c <CLOCK_SetPbeMode+0xac>)
    179a:	2280      	movs	r2, #128	; 0x80
    179c:	4252      	negs	r2, r2
    179e:	4313      	orrs	r3, r2
    17a0:	b2db      	uxtb	r3, r3
    17a2:	700b      	strb	r3, [r1, #0]
    17a4:	46c0      	nop			; (mov r8, r8)
    17a6:	4b19      	ldr	r3, [pc, #100]	; (180c <CLOCK_SetPbeMode+0xac>)
    17a8:	799b      	ldrb	r3, [r3, #6]
    17aa:	b2db      	uxtb	r3, r3
    17ac:	001a      	movs	r2, r3
    17ae:	231c      	movs	r3, #28
    17b0:	4013      	ands	r3, r2
    17b2:	2b08      	cmp	r3, #8
    17b4:	d1f7      	bne.n	17a6 <CLOCK_SetPbeMode+0x46>
    17b6:	4b15      	ldr	r3, [pc, #84]	; (180c <CLOCK_SetPbeMode+0xac>)
    17b8:	795b      	ldrb	r3, [r3, #5]
    17ba:	b2db      	uxtb	r3, r3
    17bc:	4a13      	ldr	r2, [pc, #76]	; (180c <CLOCK_SetPbeMode+0xac>)
    17be:	2140      	movs	r1, #64	; 0x40
    17c0:	438b      	bics	r3, r1
    17c2:	b2db      	uxtb	r3, r3
    17c4:	7153      	strb	r3, [r2, #5]
    17c6:	46c0      	nop			; (mov r8, r8)
    17c8:	4b10      	ldr	r3, [pc, #64]	; (180c <CLOCK_SetPbeMode+0xac>)
    17ca:	799b      	ldrb	r3, [r3, #6]
    17cc:	b2db      	uxtb	r3, r3
    17ce:	001a      	movs	r2, r3
    17d0:	2320      	movs	r3, #32
    17d2:	4013      	ands	r3, r2
    17d4:	d1f8      	bne.n	17c8 <CLOCK_SetPbeMode+0x68>
    17d6:	683b      	ldr	r3, [r7, #0]
    17d8:	0018      	movs	r0, r3
    17da:	f7ff ff2d 	bl	1638 <CLOCK_EnablePll0>
    17de:	4b0b      	ldr	r3, [pc, #44]	; (180c <CLOCK_SetPbeMode+0xac>)
    17e0:	795b      	ldrb	r3, [r3, #5]
    17e2:	b2db      	uxtb	r3, r3
    17e4:	4a09      	ldr	r2, [pc, #36]	; (180c <CLOCK_SetPbeMode+0xac>)
    17e6:	2140      	movs	r1, #64	; 0x40
    17e8:	430b      	orrs	r3, r1
    17ea:	b2db      	uxtb	r3, r3
    17ec:	7153      	strb	r3, [r2, #5]
    17ee:	46c0      	nop			; (mov r8, r8)
    17f0:	4b06      	ldr	r3, [pc, #24]	; (180c <CLOCK_SetPbeMode+0xac>)
    17f2:	799b      	ldrb	r3, [r3, #6]
    17f4:	b2db      	uxtb	r3, r3
    17f6:	001a      	movs	r2, r3
    17f8:	2320      	movs	r3, #32
    17fa:	4013      	ands	r3, r2
    17fc:	d0f8      	beq.n	17f0 <CLOCK_SetPbeMode+0x90>
    17fe:	2300      	movs	r3, #0
    1800:	0018      	movs	r0, r3
    1802:	46bd      	mov	sp, r7
    1804:	b002      	add	sp, #8
    1806:	bd80      	pop	{r7, pc}
    1808:	00004d50 	.word	0x00004d50
    180c:	40064000 	.word	0x40064000

00001810 <CLOCK_BootToPeeMode>:
    1810:	b580      	push	{r7, lr}
    1812:	b082      	sub	sp, #8
    1814:	af00      	add	r7, sp, #0
    1816:	603a      	str	r2, [r7, #0]
    1818:	1dfb      	adds	r3, r7, #7
    181a:	1c02      	adds	r2, r0, #0
    181c:	701a      	strb	r2, [r3, #0]
    181e:	1dbb      	adds	r3, r7, #6
    1820:	1c0a      	adds	r2, r1, #0
    1822:	701a      	strb	r2, [r3, #0]
    1824:	683b      	ldr	r3, [r7, #0]
    1826:	2b00      	cmp	r3, #0
    1828:	d103      	bne.n	1832 <CLOCK_BootToPeeMode+0x22>
    182a:	4b13      	ldr	r3, [pc, #76]	; (1878 <CLOCK_BootToPeeMode+0x68>)
    182c:	0018      	movs	r0, r3
    182e:	f000 fd69 	bl	2304 <__assertion_failed>
    1832:	1dfb      	adds	r3, r7, #7
    1834:	781b      	ldrb	r3, [r3, #0]
    1836:	0018      	movs	r0, r3
    1838:	f002 fb6a 	bl	3f10 <CLOCK_SetExternalRefClkConfig>
    183c:	683a      	ldr	r2, [r7, #0]
    183e:	1dbb      	adds	r3, r7, #6
    1840:	781b      	ldrb	r3, [r3, #0]
    1842:	0011      	movs	r1, r2
    1844:	0018      	movs	r0, r3
    1846:	f7ff ff8b 	bl	1760 <CLOCK_SetPbeMode>
    184a:	4b0c      	ldr	r3, [pc, #48]	; (187c <CLOCK_BootToPeeMode+0x6c>)
    184c:	781b      	ldrb	r3, [r3, #0]
    184e:	b2db      	uxtb	r3, r3
    1850:	4a0a      	ldr	r2, [pc, #40]	; (187c <CLOCK_BootToPeeMode+0x6c>)
    1852:	213f      	movs	r1, #63	; 0x3f
    1854:	400b      	ands	r3, r1
    1856:	b2db      	uxtb	r3, r3
    1858:	7013      	strb	r3, [r2, #0]
    185a:	46c0      	nop			; (mov r8, r8)
    185c:	4b07      	ldr	r3, [pc, #28]	; (187c <CLOCK_BootToPeeMode+0x6c>)
    185e:	799b      	ldrb	r3, [r3, #6]
    1860:	b2db      	uxtb	r3, r3
    1862:	089b      	lsrs	r3, r3, #2
    1864:	2203      	movs	r2, #3
    1866:	4013      	ands	r3, r2
    1868:	2b03      	cmp	r3, #3
    186a:	d1f7      	bne.n	185c <CLOCK_BootToPeeMode+0x4c>
    186c:	2300      	movs	r3, #0
    186e:	0018      	movs	r0, r3
    1870:	46bd      	mov	sp, r7
    1872:	b002      	add	sp, #8
    1874:	bd80      	pop	{r7, pc}
    1876:	46c0      	nop			; (mov r8, r8)
    1878:	00004d6c 	.word	0x00004d6c
    187c:	40064000 	.word	0x40064000

00001880 <CLOCK_EnableClock>:
    1880:	b580      	push	{r7, lr}
    1882:	b084      	sub	sp, #16
    1884:	af00      	add	r7, sp, #0
    1886:	6078      	str	r0, [r7, #4]
    1888:	687b      	ldr	r3, [r7, #4]
    188a:	0c1b      	lsrs	r3, r3, #16
    188c:	4a08      	ldr	r2, [pc, #32]	; (18b0 <CLOCK_EnableClock+0x30>)
    188e:	4694      	mov	ip, r2
    1890:	4463      	add	r3, ip
    1892:	60fb      	str	r3, [r7, #12]
    1894:	68fb      	ldr	r3, [r7, #12]
    1896:	6819      	ldr	r1, [r3, #0]
    1898:	687b      	ldr	r3, [r7, #4]
    189a:	041b      	lsls	r3, r3, #16
    189c:	0c1b      	lsrs	r3, r3, #16
    189e:	2201      	movs	r2, #1
    18a0:	409a      	lsls	r2, r3
    18a2:	68fb      	ldr	r3, [r7, #12]
    18a4:	430a      	orrs	r2, r1
    18a6:	601a      	str	r2, [r3, #0]
    18a8:	46c0      	nop			; (mov r8, r8)
    18aa:	46bd      	mov	sp, r7
    18ac:	b004      	add	sp, #16
    18ae:	bd80      	pop	{r7, pc}
    18b0:	40047000 	.word	0x40047000

000018b4 <LPSCI_GetInstance>:
    18b4:	b580      	push	{r7, lr}
    18b6:	b084      	sub	sp, #16
    18b8:	af00      	add	r7, sp, #0
    18ba:	6078      	str	r0, [r7, #4]
    18bc:	2300      	movs	r3, #0
    18be:	60fb      	str	r3, [r7, #12]
    18c0:	e006      	b.n	18d0 <LPSCI_GetInstance+0x1c>
    18c2:	4a0c      	ldr	r2, [pc, #48]	; (18f4 <LPSCI_GetInstance+0x40>)
    18c4:	687b      	ldr	r3, [r7, #4]
    18c6:	4293      	cmp	r3, r2
    18c8:	d006      	beq.n	18d8 <LPSCI_GetInstance+0x24>
    18ca:	68fb      	ldr	r3, [r7, #12]
    18cc:	3301      	adds	r3, #1
    18ce:	60fb      	str	r3, [r7, #12]
    18d0:	68fb      	ldr	r3, [r7, #12]
    18d2:	2b00      	cmp	r3, #0
    18d4:	d0f5      	beq.n	18c2 <LPSCI_GetInstance+0xe>
    18d6:	e000      	b.n	18da <LPSCI_GetInstance+0x26>
    18d8:	46c0      	nop			; (mov r8, r8)
    18da:	68fb      	ldr	r3, [r7, #12]
    18dc:	2b00      	cmp	r3, #0
    18de:	d003      	beq.n	18e8 <LPSCI_GetInstance+0x34>
    18e0:	4b05      	ldr	r3, [pc, #20]	; (18f8 <LPSCI_GetInstance+0x44>)
    18e2:	0018      	movs	r0, r3
    18e4:	f000 fd0e 	bl	2304 <__assertion_failed>
    18e8:	68fb      	ldr	r3, [r7, #12]
    18ea:	0018      	movs	r0, r3
    18ec:	46bd      	mov	sp, r7
    18ee:	b004      	add	sp, #16
    18f0:	bd80      	pop	{r7, pc}
    18f2:	46c0      	nop			; (mov r8, r8)
    18f4:	4006a000 	.word	0x4006a000
    18f8:	00004d98 	.word	0x00004d98

000018fc <LPSCI_Init>:
    18fc:	b5b0      	push	{r4, r5, r7, lr}
    18fe:	b08c      	sub	sp, #48	; 0x30
    1900:	af00      	add	r7, sp, #0
    1902:	60f8      	str	r0, [r7, #12]
    1904:	60b9      	str	r1, [r7, #8]
    1906:	607a      	str	r2, [r7, #4]
    1908:	68bb      	ldr	r3, [r7, #8]
    190a:	2b00      	cmp	r3, #0
    190c:	d103      	bne.n	1916 <LPSCI_Init+0x1a>
    190e:	4b8d      	ldr	r3, [pc, #564]	; (1b44 <LPSCI_Init+0x248>)
    1910:	0018      	movs	r0, r3
    1912:	f000 fcf7 	bl	2304 <__assertion_failed>
    1916:	68bb      	ldr	r3, [r7, #8]
    1918:	681b      	ldr	r3, [r3, #0]
    191a:	2b00      	cmp	r3, #0
    191c:	d103      	bne.n	1926 <LPSCI_Init+0x2a>
    191e:	4b8a      	ldr	r3, [pc, #552]	; (1b48 <LPSCI_Init+0x24c>)
    1920:	0018      	movs	r0, r3
    1922:	f000 fcef 	bl	2304 <__assertion_failed>
    1926:	232c      	movs	r3, #44	; 0x2c
    1928:	18fb      	adds	r3, r7, r3
    192a:	2200      	movs	r2, #0
    192c:	801a      	strh	r2, [r3, #0]
    192e:	2300      	movs	r3, #0
    1930:	627b      	str	r3, [r7, #36]	; 0x24
    1932:	68bb      	ldr	r3, [r7, #8]
    1934:	681b      	ldr	r3, [r3, #0]
    1936:	61bb      	str	r3, [r7, #24]
    1938:	2304      	movs	r3, #4
    193a:	623b      	str	r3, [r7, #32]
    193c:	e05a      	b.n	19f4 <LPSCI_Init+0xf8>
    193e:	68bb      	ldr	r3, [r7, #8]
    1940:	681b      	ldr	r3, [r3, #0]
    1942:	6a3a      	ldr	r2, [r7, #32]
    1944:	4353      	muls	r3, r2
    1946:	0019      	movs	r1, r3
    1948:	6878      	ldr	r0, [r7, #4]
    194a:	f002 fb8d 	bl	4068 <__aeabi_uidiv>
    194e:	0003      	movs	r3, r0
    1950:	001a      	movs	r2, r3
    1952:	212a      	movs	r1, #42	; 0x2a
    1954:	187b      	adds	r3, r7, r1
    1956:	801a      	strh	r2, [r3, #0]
    1958:	000a      	movs	r2, r1
    195a:	18bb      	adds	r3, r7, r2
    195c:	881b      	ldrh	r3, [r3, #0]
    195e:	2b00      	cmp	r3, #0
    1960:	d102      	bne.n	1968 <LPSCI_Init+0x6c>
    1962:	18bb      	adds	r3, r7, r2
    1964:	2201      	movs	r2, #1
    1966:	801a      	strh	r2, [r3, #0]
    1968:	252a      	movs	r5, #42	; 0x2a
    196a:	197b      	adds	r3, r7, r5
    196c:	881b      	ldrh	r3, [r3, #0]
    196e:	6a3a      	ldr	r2, [r7, #32]
    1970:	4353      	muls	r3, r2
    1972:	0019      	movs	r1, r3
    1974:	6878      	ldr	r0, [r7, #4]
    1976:	f002 fb77 	bl	4068 <__aeabi_uidiv>
    197a:	0003      	movs	r3, r0
    197c:	617b      	str	r3, [r7, #20]
    197e:	68bb      	ldr	r3, [r7, #8]
    1980:	681b      	ldr	r3, [r3, #0]
    1982:	697a      	ldr	r2, [r7, #20]
    1984:	1ad3      	subs	r3, r2, r3
    1986:	61fb      	str	r3, [r7, #28]
    1988:	68bb      	ldr	r3, [r7, #8]
    198a:	681c      	ldr	r4, [r3, #0]
    198c:	197b      	adds	r3, r7, r5
    198e:	881b      	ldrh	r3, [r3, #0]
    1990:	3301      	adds	r3, #1
    1992:	001a      	movs	r2, r3
    1994:	6a3b      	ldr	r3, [r7, #32]
    1996:	4353      	muls	r3, r2
    1998:	0019      	movs	r1, r3
    199a:	6878      	ldr	r0, [r7, #4]
    199c:	f002 fb64 	bl	4068 <__aeabi_uidiv>
    19a0:	0003      	movs	r3, r0
    19a2:	1ae3      	subs	r3, r4, r3
    19a4:	69fa      	ldr	r2, [r7, #28]
    19a6:	429a      	cmp	r2, r3
    19a8:	d913      	bls.n	19d2 <LPSCI_Init+0xd6>
    19aa:	68bb      	ldr	r3, [r7, #8]
    19ac:	681c      	ldr	r4, [r3, #0]
    19ae:	197b      	adds	r3, r7, r5
    19b0:	881b      	ldrh	r3, [r3, #0]
    19b2:	3301      	adds	r3, #1
    19b4:	001a      	movs	r2, r3
    19b6:	6a3b      	ldr	r3, [r7, #32]
    19b8:	4353      	muls	r3, r2
    19ba:	0019      	movs	r1, r3
    19bc:	6878      	ldr	r0, [r7, #4]
    19be:	f002 fb53 	bl	4068 <__aeabi_uidiv>
    19c2:	0003      	movs	r3, r0
    19c4:	1ae3      	subs	r3, r4, r3
    19c6:	61fb      	str	r3, [r7, #28]
    19c8:	197b      	adds	r3, r7, r5
    19ca:	881a      	ldrh	r2, [r3, #0]
    19cc:	197b      	adds	r3, r7, r5
    19ce:	3201      	adds	r2, #1
    19d0:	801a      	strh	r2, [r3, #0]
    19d2:	69fa      	ldr	r2, [r7, #28]
    19d4:	69bb      	ldr	r3, [r7, #24]
    19d6:	429a      	cmp	r2, r3
    19d8:	d809      	bhi.n	19ee <LPSCI_Init+0xf2>
    19da:	69fb      	ldr	r3, [r7, #28]
    19dc:	61bb      	str	r3, [r7, #24]
    19de:	6a3b      	ldr	r3, [r7, #32]
    19e0:	627b      	str	r3, [r7, #36]	; 0x24
    19e2:	232c      	movs	r3, #44	; 0x2c
    19e4:	18fb      	adds	r3, r7, r3
    19e6:	222a      	movs	r2, #42	; 0x2a
    19e8:	18ba      	adds	r2, r7, r2
    19ea:	8812      	ldrh	r2, [r2, #0]
    19ec:	801a      	strh	r2, [r3, #0]
    19ee:	6a3b      	ldr	r3, [r7, #32]
    19f0:	3301      	adds	r3, #1
    19f2:	623b      	str	r3, [r7, #32]
    19f4:	6a3b      	ldr	r3, [r7, #32]
    19f6:	2b20      	cmp	r3, #32
    19f8:	d9a1      	bls.n	193e <LPSCI_Init+0x42>
    19fa:	68bb      	ldr	r3, [r7, #8]
    19fc:	681b      	ldr	r3, [r3, #0]
    19fe:	2164      	movs	r1, #100	; 0x64
    1a00:	0018      	movs	r0, r3
    1a02:	f002 fb31 	bl	4068 <__aeabi_uidiv>
    1a06:	0003      	movs	r3, r0
    1a08:	001a      	movs	r2, r3
    1a0a:	0013      	movs	r3, r2
    1a0c:	005b      	lsls	r3, r3, #1
    1a0e:	189b      	adds	r3, r3, r2
    1a10:	69ba      	ldr	r2, [r7, #24]
    1a12:	429a      	cmp	r2, r3
    1a14:	d901      	bls.n	1a1a <LPSCI_Init+0x11e>
    1a16:	4b4d      	ldr	r3, [pc, #308]	; (1b4c <LPSCI_Init+0x250>)
    1a18:	e090      	b.n	1b3c <LPSCI_Init+0x240>
    1a1a:	68fb      	ldr	r3, [r7, #12]
    1a1c:	0018      	movs	r0, r3
    1a1e:	f7ff ff49 	bl	18b4 <LPSCI_GetInstance>
    1a22:	4b4b      	ldr	r3, [pc, #300]	; (1b50 <LPSCI_Init+0x254>)
    1a24:	0018      	movs	r0, r3
    1a26:	f7ff ff2b 	bl	1880 <CLOCK_EnableClock>
    1a2a:	68fb      	ldr	r3, [r7, #12]
    1a2c:	78db      	ldrb	r3, [r3, #3]
    1a2e:	b2db      	uxtb	r3, r3
    1a30:	220c      	movs	r2, #12
    1a32:	4393      	bics	r3, r2
    1a34:	b2da      	uxtb	r2, r3
    1a36:	68fb      	ldr	r3, [r7, #12]
    1a38:	70da      	strb	r2, [r3, #3]
    1a3a:	6a7b      	ldr	r3, [r7, #36]	; 0x24
    1a3c:	2b03      	cmp	r3, #3
    1a3e:	d90a      	bls.n	1a56 <LPSCI_Init+0x15a>
    1a40:	6a7b      	ldr	r3, [r7, #36]	; 0x24
    1a42:	2b07      	cmp	r3, #7
    1a44:	d807      	bhi.n	1a56 <LPSCI_Init+0x15a>
    1a46:	68fb      	ldr	r3, [r7, #12]
    1a48:	7adb      	ldrb	r3, [r3, #11]
    1a4a:	b2db      	uxtb	r3, r3
    1a4c:	2202      	movs	r2, #2
    1a4e:	4313      	orrs	r3, r2
    1a50:	b2da      	uxtb	r2, r3
    1a52:	68fb      	ldr	r3, [r7, #12]
    1a54:	72da      	strb	r2, [r3, #11]
    1a56:	68fb      	ldr	r3, [r7, #12]
    1a58:	7a9b      	ldrb	r3, [r3, #10]
    1a5a:	b2db      	uxtb	r3, r3
    1a5c:	221f      	movs	r2, #31
    1a5e:	4393      	bics	r3, r2
    1a60:	b2da      	uxtb	r2, r3
    1a62:	6a7b      	ldr	r3, [r7, #36]	; 0x24
    1a64:	b2db      	uxtb	r3, r3
    1a66:	3b01      	subs	r3, #1
    1a68:	b2db      	uxtb	r3, r3
    1a6a:	4313      	orrs	r3, r2
    1a6c:	b2da      	uxtb	r2, r3
    1a6e:	68fb      	ldr	r3, [r7, #12]
    1a70:	729a      	strb	r2, [r3, #10]
    1a72:	68fb      	ldr	r3, [r7, #12]
    1a74:	7a9b      	ldrb	r3, [r3, #10]
    1a76:	b2db      	uxtb	r3, r3
    1a78:	221f      	movs	r2, #31
    1a7a:	4393      	bics	r3, r2
    1a7c:	b2da      	uxtb	r2, r3
    1a7e:	212c      	movs	r1, #44	; 0x2c
    1a80:	187b      	adds	r3, r7, r1
    1a82:	881b      	ldrh	r3, [r3, #0]
    1a84:	0a1b      	lsrs	r3, r3, #8
    1a86:	b29b      	uxth	r3, r3
    1a88:	b2db      	uxtb	r3, r3
    1a8a:	4313      	orrs	r3, r2
    1a8c:	b2da      	uxtb	r2, r3
    1a8e:	68fb      	ldr	r3, [r7, #12]
    1a90:	701a      	strb	r2, [r3, #0]
    1a92:	187b      	adds	r3, r7, r1
    1a94:	881b      	ldrh	r3, [r3, #0]
    1a96:	b2da      	uxtb	r2, r3
    1a98:	68fb      	ldr	r3, [r7, #12]
    1a9a:	705a      	strb	r2, [r3, #1]
    1a9c:	68fb      	ldr	r3, [r7, #12]
    1a9e:	789b      	ldrb	r3, [r3, #2]
    1aa0:	b2da      	uxtb	r2, r3
    1aa2:	202f      	movs	r0, #47	; 0x2f
    1aa4:	183b      	adds	r3, r7, r0
    1aa6:	2113      	movs	r1, #19
    1aa8:	438a      	bics	r2, r1
    1aaa:	701a      	strb	r2, [r3, #0]
    1aac:	68bb      	ldr	r3, [r7, #8]
    1aae:	791b      	ldrb	r3, [r3, #4]
    1ab0:	2b00      	cmp	r3, #0
    1ab2:	d009      	beq.n	1ac8 <LPSCI_Init+0x1cc>
    1ab4:	68bb      	ldr	r3, [r7, #8]
    1ab6:	791a      	ldrb	r2, [r3, #4]
    1ab8:	183b      	adds	r3, r7, r0
    1aba:	781b      	ldrb	r3, [r3, #0]
    1abc:	4313      	orrs	r3, r2
    1abe:	b2da      	uxtb	r2, r3
    1ac0:	183b      	adds	r3, r7, r0
    1ac2:	2110      	movs	r1, #16
    1ac4:	430a      	orrs	r2, r1
    1ac6:	701a      	strb	r2, [r3, #0]
    1ac8:	68fb      	ldr	r3, [r7, #12]
    1aca:	202f      	movs	r0, #47	; 0x2f
    1acc:	183a      	adds	r2, r7, r0
    1ace:	7812      	ldrb	r2, [r2, #0]
    1ad0:	709a      	strb	r2, [r3, #2]
    1ad2:	68fb      	ldr	r3, [r7, #12]
    1ad4:	781b      	ldrb	r3, [r3, #0]
    1ad6:	b2db      	uxtb	r3, r3
    1ad8:	2220      	movs	r2, #32
    1ada:	4393      	bics	r3, r2
    1adc:	b2da      	uxtb	r2, r3
    1ade:	68fb      	ldr	r3, [r7, #12]
    1ae0:	701a      	strb	r2, [r3, #0]
    1ae2:	68fb      	ldr	r3, [r7, #12]
    1ae4:	781b      	ldrb	r3, [r3, #0]
    1ae6:	b2da      	uxtb	r2, r3
    1ae8:	68bb      	ldr	r3, [r7, #8]
    1aea:	795b      	ldrb	r3, [r3, #5]
    1aec:	015b      	lsls	r3, r3, #5
    1aee:	b2db      	uxtb	r3, r3
    1af0:	2120      	movs	r1, #32
    1af2:	400b      	ands	r3, r1
    1af4:	b2db      	uxtb	r3, r3
    1af6:	4313      	orrs	r3, r2
    1af8:	b2da      	uxtb	r2, r3
    1afa:	68fb      	ldr	r3, [r7, #12]
    1afc:	701a      	strb	r2, [r3, #0]
    1afe:	183b      	adds	r3, r7, r0
    1b00:	68fa      	ldr	r2, [r7, #12]
    1b02:	78d2      	ldrb	r2, [r2, #3]
    1b04:	701a      	strb	r2, [r3, #0]
    1b06:	68bb      	ldr	r3, [r7, #8]
    1b08:	799b      	ldrb	r3, [r3, #6]
    1b0a:	2b00      	cmp	r3, #0
    1b0c:	d005      	beq.n	1b1a <LPSCI_Init+0x21e>
    1b0e:	183b      	adds	r3, r7, r0
    1b10:	183a      	adds	r2, r7, r0
    1b12:	7812      	ldrb	r2, [r2, #0]
    1b14:	2108      	movs	r1, #8
    1b16:	430a      	orrs	r2, r1
    1b18:	701a      	strb	r2, [r3, #0]
    1b1a:	68bb      	ldr	r3, [r7, #8]
    1b1c:	79db      	ldrb	r3, [r3, #7]
    1b1e:	2b00      	cmp	r3, #0
    1b20:	d006      	beq.n	1b30 <LPSCI_Init+0x234>
    1b22:	222f      	movs	r2, #47	; 0x2f
    1b24:	18bb      	adds	r3, r7, r2
    1b26:	18ba      	adds	r2, r7, r2
    1b28:	7812      	ldrb	r2, [r2, #0]
    1b2a:	2104      	movs	r1, #4
    1b2c:	430a      	orrs	r2, r1
    1b2e:	701a      	strb	r2, [r3, #0]
    1b30:	68fb      	ldr	r3, [r7, #12]
    1b32:	222f      	movs	r2, #47	; 0x2f
    1b34:	18ba      	adds	r2, r7, r2
    1b36:	7812      	ldrb	r2, [r2, #0]
    1b38:	70da      	strb	r2, [r3, #3]
    1b3a:	2300      	movs	r3, #0
    1b3c:	0018      	movs	r0, r3
    1b3e:	46bd      	mov	sp, r7
    1b40:	b00c      	add	sp, #48	; 0x30
    1b42:	bdb0      	pop	{r4, r5, r7, pc}
    1b44:	00004dd0 	.word	0x00004dd0
    1b48:	00004dec 	.word	0x00004dec
    1b4c:	000004b5 	.word	0x000004b5
    1b50:	1034000a 	.word	0x1034000a

00001b54 <LPSCI_GetDefaultConfig>:
    1b54:	b580      	push	{r7, lr}
    1b56:	b082      	sub	sp, #8
    1b58:	af00      	add	r7, sp, #0
    1b5a:	6078      	str	r0, [r7, #4]
    1b5c:	687b      	ldr	r3, [r7, #4]
    1b5e:	2b00      	cmp	r3, #0
    1b60:	d103      	bne.n	1b6a <LPSCI_GetDefaultConfig+0x16>
    1b62:	4b0c      	ldr	r3, [pc, #48]	; (1b94 <LPSCI_GetDefaultConfig+0x40>)
    1b64:	0018      	movs	r0, r3
    1b66:	f000 fbcd 	bl	2304 <__assertion_failed>
    1b6a:	687b      	ldr	r3, [r7, #4]
    1b6c:	22e1      	movs	r2, #225	; 0xe1
    1b6e:	0252      	lsls	r2, r2, #9
    1b70:	601a      	str	r2, [r3, #0]
    1b72:	687b      	ldr	r3, [r7, #4]
    1b74:	2200      	movs	r2, #0
    1b76:	711a      	strb	r2, [r3, #4]
    1b78:	687b      	ldr	r3, [r7, #4]
    1b7a:	2200      	movs	r2, #0
    1b7c:	715a      	strb	r2, [r3, #5]
    1b7e:	687b      	ldr	r3, [r7, #4]
    1b80:	2200      	movs	r2, #0
    1b82:	719a      	strb	r2, [r3, #6]
    1b84:	687b      	ldr	r3, [r7, #4]
    1b86:	2200      	movs	r2, #0
    1b88:	71da      	strb	r2, [r3, #7]
    1b8a:	46c0      	nop			; (mov r8, r8)
    1b8c:	46bd      	mov	sp, r7
    1b8e:	b002      	add	sp, #8
    1b90:	bd80      	pop	{r7, pc}
    1b92:	46c0      	nop			; (mov r8, r8)
    1b94:	00004e14 	.word	0x00004e14

00001b98 <LPSCI_ClearStatusFlags>:
    1b98:	b580      	push	{r7, lr}
    1b9a:	b084      	sub	sp, #16
    1b9c:	af00      	add	r7, sp, #0
    1b9e:	6078      	str	r0, [r7, #4]
    1ba0:	6039      	str	r1, [r7, #0]
    1ba2:	210b      	movs	r1, #11
    1ba4:	187b      	adds	r3, r7, r1
    1ba6:	2200      	movs	r2, #0
    1ba8:	701a      	strb	r2, [r3, #0]
    1baa:	187b      	adds	r3, r7, r1
    1bac:	781b      	ldrb	r3, [r3, #0]
    1bae:	b2db      	uxtb	r3, r3
    1bb0:	3301      	adds	r3, #1
    1bb2:	b2da      	uxtb	r2, r3
    1bb4:	187b      	adds	r3, r7, r1
    1bb6:	701a      	strb	r2, [r3, #0]
    1bb8:	683a      	ldr	r2, [r7, #0]
    1bba:	2380      	movs	r3, #128	; 0x80
    1bbc:	021b      	lsls	r3, r3, #8
    1bbe:	4013      	ands	r3, r2
    1bc0:	d006      	beq.n	1bd0 <LPSCI_ClearStatusFlags+0x38>
    1bc2:	687b      	ldr	r3, [r7, #4]
    1bc4:	2280      	movs	r2, #128	; 0x80
    1bc6:	715a      	strb	r2, [r3, #5]
    1bc8:	683b      	ldr	r3, [r7, #0]
    1bca:	4a15      	ldr	r2, [pc, #84]	; (1c20 <LPSCI_ClearStatusFlags+0x88>)
    1bcc:	4013      	ands	r3, r2
    1bce:	603b      	str	r3, [r7, #0]
    1bd0:	683a      	ldr	r2, [r7, #0]
    1bd2:	2380      	movs	r3, #128	; 0x80
    1bd4:	01db      	lsls	r3, r3, #7
    1bd6:	4013      	ands	r3, r2
    1bd8:	d006      	beq.n	1be8 <LPSCI_ClearStatusFlags+0x50>
    1bda:	687b      	ldr	r3, [r7, #4]
    1bdc:	2240      	movs	r2, #64	; 0x40
    1bde:	715a      	strb	r2, [r3, #5]
    1be0:	683b      	ldr	r3, [r7, #0]
    1be2:	4a10      	ldr	r2, [pc, #64]	; (1c24 <LPSCI_ClearStatusFlags+0x8c>)
    1be4:	4013      	ands	r3, r2
    1be6:	603b      	str	r3, [r7, #0]
    1be8:	683b      	ldr	r3, [r7, #0]
    1bea:	221f      	movs	r2, #31
    1bec:	4013      	ands	r3, r2
    1bee:	d00a      	beq.n	1c06 <LPSCI_ClearStatusFlags+0x6e>
    1bf0:	683b      	ldr	r3, [r7, #0]
    1bf2:	b2db      	uxtb	r3, r3
    1bf4:	221f      	movs	r2, #31
    1bf6:	4013      	ands	r3, r2
    1bf8:	b2da      	uxtb	r2, r3
    1bfa:	687b      	ldr	r3, [r7, #4]
    1bfc:	711a      	strb	r2, [r3, #4]
    1bfe:	683b      	ldr	r3, [r7, #0]
    1c00:	221f      	movs	r2, #31
    1c02:	4393      	bics	r3, r2
    1c04:	603b      	str	r3, [r7, #0]
    1c06:	683b      	ldr	r3, [r7, #0]
    1c08:	2b00      	cmp	r3, #0
    1c0a:	d002      	beq.n	1c12 <LPSCI_ClearStatusFlags+0x7a>
    1c0c:	4b06      	ldr	r3, [pc, #24]	; (1c28 <LPSCI_ClearStatusFlags+0x90>)
    1c0e:	60fb      	str	r3, [r7, #12]
    1c10:	e001      	b.n	1c16 <LPSCI_ClearStatusFlags+0x7e>
    1c12:	2300      	movs	r3, #0
    1c14:	60fb      	str	r3, [r7, #12]
    1c16:	68fb      	ldr	r3, [r7, #12]
    1c18:	0018      	movs	r0, r3
    1c1a:	46bd      	mov	sp, r7
    1c1c:	b004      	add	sp, #16
    1c1e:	bd80      	pop	{r7, pc}
    1c20:	ffff7fff 	.word	0xffff7fff
    1c24:	ffffbfff 	.word	0xffffbfff
    1c28:	000004b4 	.word	0x000004b4

00001c2c <LPSCI_WriteBlocking>:
    1c2c:	b580      	push	{r7, lr}
    1c2e:	b084      	sub	sp, #16
    1c30:	af00      	add	r7, sp, #0
    1c32:	60f8      	str	r0, [r7, #12]
    1c34:	60b9      	str	r1, [r7, #8]
    1c36:	607a      	str	r2, [r7, #4]
    1c38:	68bb      	ldr	r3, [r7, #8]
    1c3a:	2b00      	cmp	r3, #0
    1c3c:	d110      	bne.n	1c60 <LPSCI_WriteBlocking+0x34>
    1c3e:	4b0d      	ldr	r3, [pc, #52]	; (1c74 <LPSCI_WriteBlocking+0x48>)
    1c40:	0018      	movs	r0, r3
    1c42:	f000 fb5f 	bl	2304 <__assertion_failed>
    1c46:	46c0      	nop			; (mov r8, r8)
    1c48:	68fb      	ldr	r3, [r7, #12]
    1c4a:	791b      	ldrb	r3, [r3, #4]
    1c4c:	b2db      	uxtb	r3, r3
    1c4e:	b25b      	sxtb	r3, r3
    1c50:	2b00      	cmp	r3, #0
    1c52:	daf9      	bge.n	1c48 <LPSCI_WriteBlocking+0x1c>
    1c54:	68bb      	ldr	r3, [r7, #8]
    1c56:	1c5a      	adds	r2, r3, #1
    1c58:	60ba      	str	r2, [r7, #8]
    1c5a:	781a      	ldrb	r2, [r3, #0]
    1c5c:	68fb      	ldr	r3, [r7, #12]
    1c5e:	71da      	strb	r2, [r3, #7]
    1c60:	687b      	ldr	r3, [r7, #4]
    1c62:	1e5a      	subs	r2, r3, #1
    1c64:	607a      	str	r2, [r7, #4]
    1c66:	2b00      	cmp	r3, #0
    1c68:	d1ed      	bne.n	1c46 <LPSCI_WriteBlocking+0x1a>
    1c6a:	46c0      	nop			; (mov r8, r8)
    1c6c:	46c0      	nop			; (mov r8, r8)
    1c6e:	46bd      	mov	sp, r7
    1c70:	b004      	add	sp, #16
    1c72:	bd80      	pop	{r7, pc}
    1c74:	00004e30 	.word	0x00004e30

00001c78 <LPSCI_ReadBlocking>:
    1c78:	b580      	push	{r7, lr}
    1c7a:	b086      	sub	sp, #24
    1c7c:	af00      	add	r7, sp, #0
    1c7e:	60f8      	str	r0, [r7, #12]
    1c80:	60b9      	str	r1, [r7, #8]
    1c82:	607a      	str	r2, [r7, #4]
    1c84:	68bb      	ldr	r3, [r7, #8]
    1c86:	2b00      	cmp	r3, #0
    1c88:	d144      	bne.n	1d14 <LPSCI_ReadBlocking+0x9c>
    1c8a:	4b27      	ldr	r3, [pc, #156]	; (1d28 <LPSCI_ReadBlocking+0xb0>)
    1c8c:	0018      	movs	r0, r3
    1c8e:	f000 fb39 	bl	2304 <__assertion_failed>
    1c92:	68fb      	ldr	r3, [r7, #12]
    1c94:	0018      	movs	r0, r3
    1c96:	f002 f946 	bl	3f26 <LPSCI_GetStatusFlags>
    1c9a:	0003      	movs	r3, r0
    1c9c:	617b      	str	r3, [r7, #20]
    1c9e:	697b      	ldr	r3, [r7, #20]
    1ca0:	2208      	movs	r2, #8
    1ca2:	4013      	ands	r3, r2
    1ca4:	d007      	beq.n	1cb6 <LPSCI_ReadBlocking+0x3e>
    1ca6:	68fb      	ldr	r3, [r7, #12]
    1ca8:	2108      	movs	r1, #8
    1caa:	0018      	movs	r0, r3
    1cac:	f7ff ff74 	bl	1b98 <LPSCI_ClearStatusFlags>
    1cb0:	2397      	movs	r3, #151	; 0x97
    1cb2:	00db      	lsls	r3, r3, #3
    1cb4:	e034      	b.n	1d20 <LPSCI_ReadBlocking+0xa8>
    1cb6:	697b      	ldr	r3, [r7, #20]
    1cb8:	2204      	movs	r2, #4
    1cba:	4013      	ands	r3, r2
    1cbc:	d006      	beq.n	1ccc <LPSCI_ReadBlocking+0x54>
    1cbe:	68fb      	ldr	r3, [r7, #12]
    1cc0:	2104      	movs	r1, #4
    1cc2:	0018      	movs	r0, r3
    1cc4:	f7ff ff68 	bl	1b98 <LPSCI_ClearStatusFlags>
    1cc8:	4b18      	ldr	r3, [pc, #96]	; (1d2c <LPSCI_ReadBlocking+0xb4>)
    1cca:	e029      	b.n	1d20 <LPSCI_ReadBlocking+0xa8>
    1ccc:	697b      	ldr	r3, [r7, #20]
    1cce:	2202      	movs	r2, #2
    1cd0:	4013      	ands	r3, r2
    1cd2:	d006      	beq.n	1ce2 <LPSCI_ReadBlocking+0x6a>
    1cd4:	68fb      	ldr	r3, [r7, #12]
    1cd6:	2102      	movs	r1, #2
    1cd8:	0018      	movs	r0, r3
    1cda:	f7ff ff5d 	bl	1b98 <LPSCI_ClearStatusFlags>
    1cde:	4b14      	ldr	r3, [pc, #80]	; (1d30 <LPSCI_ReadBlocking+0xb8>)
    1ce0:	e01e      	b.n	1d20 <LPSCI_ReadBlocking+0xa8>
    1ce2:	697b      	ldr	r3, [r7, #20]
    1ce4:	2201      	movs	r2, #1
    1ce6:	4013      	ands	r3, r2
    1ce8:	d006      	beq.n	1cf8 <LPSCI_ReadBlocking+0x80>
    1cea:	68fb      	ldr	r3, [r7, #12]
    1cec:	2101      	movs	r1, #1
    1cee:	0018      	movs	r0, r3
    1cf0:	f7ff ff52 	bl	1b98 <LPSCI_ClearStatusFlags>
    1cf4:	4b0f      	ldr	r3, [pc, #60]	; (1d34 <LPSCI_ReadBlocking+0xbc>)
    1cf6:	e013      	b.n	1d20 <LPSCI_ReadBlocking+0xa8>
    1cf8:	68fb      	ldr	r3, [r7, #12]
    1cfa:	791b      	ldrb	r3, [r3, #4]
    1cfc:	b2db      	uxtb	r3, r3
    1cfe:	001a      	movs	r2, r3
    1d00:	2320      	movs	r3, #32
    1d02:	4013      	ands	r3, r2
    1d04:	d0c5      	beq.n	1c92 <LPSCI_ReadBlocking+0x1a>
    1d06:	68bb      	ldr	r3, [r7, #8]
    1d08:	1c5a      	adds	r2, r3, #1
    1d0a:	60ba      	str	r2, [r7, #8]
    1d0c:	68fa      	ldr	r2, [r7, #12]
    1d0e:	79d2      	ldrb	r2, [r2, #7]
    1d10:	b2d2      	uxtb	r2, r2
    1d12:	701a      	strb	r2, [r3, #0]
    1d14:	687b      	ldr	r3, [r7, #4]
    1d16:	1e5a      	subs	r2, r3, #1
    1d18:	607a      	str	r2, [r7, #4]
    1d1a:	2b00      	cmp	r3, #0
    1d1c:	d1ec      	bne.n	1cf8 <LPSCI_ReadBlocking+0x80>
    1d1e:	2300      	movs	r3, #0
    1d20:	0018      	movs	r0, r3
    1d22:	46bd      	mov	sp, r7
    1d24:	b006      	add	sp, #24
    1d26:	bd80      	pop	{r7, pc}
    1d28:	00004e48 	.word	0x00004e48
    1d2c:	000004b9 	.word	0x000004b9
    1d30:	000004ba 	.word	0x000004ba
    1d34:	000004bb 	.word	0x000004bb

00001d38 <UART0_DriverIRQHandler>:
    1d38:	b580      	push	{r7, lr}
    1d3a:	af00      	add	r7, sp, #0
    1d3c:	4b04      	ldr	r3, [pc, #16]	; (1d50 <UART0_DriverIRQHandler+0x18>)
    1d3e:	681a      	ldr	r2, [r3, #0]
    1d40:	4b04      	ldr	r3, [pc, #16]	; (1d54 <UART0_DriverIRQHandler+0x1c>)
    1d42:	681b      	ldr	r3, [r3, #0]
    1d44:	4804      	ldr	r0, [pc, #16]	; (1d58 <UART0_DriverIRQHandler+0x20>)
    1d46:	0019      	movs	r1, r3
    1d48:	4790      	blx	r2
    1d4a:	46c0      	nop			; (mov r8, r8)
    1d4c:	46bd      	mov	sp, r7
    1d4e:	bd80      	pop	{r7, pc}
    1d50:	1ffff0a8 	.word	0x1ffff0a8
    1d54:	1ffff0a4 	.word	0x1ffff0a4
    1d58:	4006a000 	.word	0x4006a000

00001d5c <CLOCK_EnableClock>:
    1d5c:	b580      	push	{r7, lr}
    1d5e:	b084      	sub	sp, #16
    1d60:	af00      	add	r7, sp, #0
    1d62:	6078      	str	r0, [r7, #4]
    1d64:	687b      	ldr	r3, [r7, #4]
    1d66:	0c1b      	lsrs	r3, r3, #16
    1d68:	4a08      	ldr	r2, [pc, #32]	; (1d8c <CLOCK_EnableClock+0x30>)
    1d6a:	4694      	mov	ip, r2
    1d6c:	4463      	add	r3, ip
    1d6e:	60fb      	str	r3, [r7, #12]
    1d70:	68fb      	ldr	r3, [r7, #12]
    1d72:	6819      	ldr	r1, [r3, #0]
    1d74:	687b      	ldr	r3, [r7, #4]
    1d76:	041b      	lsls	r3, r3, #16
    1d78:	0c1b      	lsrs	r3, r3, #16
    1d7a:	2201      	movs	r2, #1
    1d7c:	409a      	lsls	r2, r3
    1d7e:	68fb      	ldr	r3, [r7, #12]
    1d80:	430a      	orrs	r2, r1
    1d82:	601a      	str	r2, [r3, #0]
    1d84:	46c0      	nop			; (mov r8, r8)
    1d86:	46bd      	mov	sp, r7
    1d88:	b004      	add	sp, #16
    1d8a:	bd80      	pop	{r7, pc}
    1d8c:	40047000 	.word	0x40047000

00001d90 <UART_GetInstance>:
    1d90:	b580      	push	{r7, lr}
    1d92:	b084      	sub	sp, #16
    1d94:	af00      	add	r7, sp, #0
    1d96:	6078      	str	r0, [r7, #4]
    1d98:	2303      	movs	r3, #3
    1d9a:	60bb      	str	r3, [r7, #8]
    1d9c:	2300      	movs	r3, #0
    1d9e:	60fb      	str	r3, [r7, #12]
    1da0:	e009      	b.n	1db6 <UART_GetInstance+0x26>
    1da2:	4b0e      	ldr	r3, [pc, #56]	; (1ddc <UART_GetInstance+0x4c>)
    1da4:	68fa      	ldr	r2, [r7, #12]
    1da6:	0092      	lsls	r2, r2, #2
    1da8:	58d3      	ldr	r3, [r2, r3]
    1daa:	687a      	ldr	r2, [r7, #4]
    1dac:	429a      	cmp	r2, r3
    1dae:	d007      	beq.n	1dc0 <UART_GetInstance+0x30>
    1db0:	68fb      	ldr	r3, [r7, #12]
    1db2:	3301      	adds	r3, #1
    1db4:	60fb      	str	r3, [r7, #12]
    1db6:	68fa      	ldr	r2, [r7, #12]
    1db8:	68bb      	ldr	r3, [r7, #8]
    1dba:	429a      	cmp	r2, r3
    1dbc:	d3f1      	bcc.n	1da2 <UART_GetInstance+0x12>
    1dbe:	e000      	b.n	1dc2 <UART_GetInstance+0x32>
    1dc0:	46c0      	nop			; (mov r8, r8)
    1dc2:	68fa      	ldr	r2, [r7, #12]
    1dc4:	68bb      	ldr	r3, [r7, #8]
    1dc6:	429a      	cmp	r2, r3
    1dc8:	d303      	bcc.n	1dd2 <UART_GetInstance+0x42>
    1dca:	4b05      	ldr	r3, [pc, #20]	; (1de0 <UART_GetInstance+0x50>)
    1dcc:	0018      	movs	r0, r3
    1dce:	f000 fa99 	bl	2304 <__assertion_failed>
    1dd2:	68fb      	ldr	r3, [r7, #12]
    1dd4:	0018      	movs	r0, r3
    1dd6:	46bd      	mov	sp, r7
    1dd8:	b004      	add	sp, #16
    1dda:	bd80      	pop	{r7, pc}
    1ddc:	00004e60 	.word	0x00004e60
    1de0:	00004e78 	.word	0x00004e78

00001de4 <UART_Init>:
    1de4:	b5b0      	push	{r4, r5, r7, lr}
    1de6:	b086      	sub	sp, #24
    1de8:	af00      	add	r7, sp, #0
    1dea:	60f8      	str	r0, [r7, #12]
    1dec:	60b9      	str	r1, [r7, #8]
    1dee:	607a      	str	r2, [r7, #4]
    1df0:	68bb      	ldr	r3, [r7, #8]
    1df2:	2b00      	cmp	r3, #0
    1df4:	d103      	bne.n	1dfe <UART_Init+0x1a>
    1df6:	4b6f      	ldr	r3, [pc, #444]	; (1fb4 <UART_Init+0x1d0>)
    1df8:	0018      	movs	r0, r3
    1dfa:	f000 fa83 	bl	2304 <__assertion_failed>
    1dfe:	68bb      	ldr	r3, [r7, #8]
    1e00:	681b      	ldr	r3, [r3, #0]
    1e02:	2b00      	cmp	r3, #0
    1e04:	d103      	bne.n	1e0e <UART_Init+0x2a>
    1e06:	4b6c      	ldr	r3, [pc, #432]	; (1fb8 <UART_Init+0x1d4>)
    1e08:	0018      	movs	r0, r3
    1e0a:	f000 fa7b 	bl	2304 <__assertion_failed>
    1e0e:	2416      	movs	r4, #22
    1e10:	193b      	adds	r3, r7, r4
    1e12:	2200      	movs	r2, #0
    1e14:	801a      	strh	r2, [r3, #0]
    1e16:	2315      	movs	r3, #21
    1e18:	18fb      	adds	r3, r7, r3
    1e1a:	2200      	movs	r2, #0
    1e1c:	701a      	strb	r2, [r3, #0]
    1e1e:	2300      	movs	r3, #0
    1e20:	613b      	str	r3, [r7, #16]
    1e22:	68bb      	ldr	r3, [r7, #8]
    1e24:	681b      	ldr	r3, [r3, #0]
    1e26:	011b      	lsls	r3, r3, #4
    1e28:	0019      	movs	r1, r3
    1e2a:	6878      	ldr	r0, [r7, #4]
    1e2c:	f002 f91c 	bl	4068 <__aeabi_uidiv>
    1e30:	0003      	movs	r3, r0
    1e32:	001a      	movs	r2, r3
    1e34:	193b      	adds	r3, r7, r4
    1e36:	801a      	strh	r2, [r3, #0]
    1e38:	193b      	adds	r3, r7, r4
    1e3a:	881b      	ldrh	r3, [r3, #0]
    1e3c:	2b00      	cmp	r3, #0
    1e3e:	d102      	bne.n	1e46 <UART_Init+0x62>
    1e40:	193b      	adds	r3, r7, r4
    1e42:	2201      	movs	r2, #1
    1e44:	801a      	strh	r2, [r3, #0]
    1e46:	2516      	movs	r5, #22
    1e48:	197b      	adds	r3, r7, r5
    1e4a:	881b      	ldrh	r3, [r3, #0]
    1e4c:	011b      	lsls	r3, r3, #4
    1e4e:	0019      	movs	r1, r3
    1e50:	6878      	ldr	r0, [r7, #4]
    1e52:	f002 f909 	bl	4068 <__aeabi_uidiv>
    1e56:	0003      	movs	r3, r0
    1e58:	001a      	movs	r2, r3
    1e5a:	68bb      	ldr	r3, [r7, #8]
    1e5c:	681b      	ldr	r3, [r3, #0]
    1e5e:	1ad3      	subs	r3, r2, r3
    1e60:	613b      	str	r3, [r7, #16]
    1e62:	68bb      	ldr	r3, [r7, #8]
    1e64:	681c      	ldr	r4, [r3, #0]
    1e66:	197b      	adds	r3, r7, r5
    1e68:	881b      	ldrh	r3, [r3, #0]
    1e6a:	3301      	adds	r3, #1
    1e6c:	011b      	lsls	r3, r3, #4
    1e6e:	0019      	movs	r1, r3
    1e70:	6878      	ldr	r0, [r7, #4]
    1e72:	f002 f8f9 	bl	4068 <__aeabi_uidiv>
    1e76:	0003      	movs	r3, r0
    1e78:	1ae3      	subs	r3, r4, r3
    1e7a:	693a      	ldr	r2, [r7, #16]
    1e7c:	429a      	cmp	r2, r3
    1e7e:	d911      	bls.n	1ea4 <UART_Init+0xc0>
    1e80:	68bb      	ldr	r3, [r7, #8]
    1e82:	681c      	ldr	r4, [r3, #0]
    1e84:	197b      	adds	r3, r7, r5
    1e86:	881b      	ldrh	r3, [r3, #0]
    1e88:	3301      	adds	r3, #1
    1e8a:	011b      	lsls	r3, r3, #4
    1e8c:	0019      	movs	r1, r3
    1e8e:	6878      	ldr	r0, [r7, #4]
    1e90:	f002 f8ea 	bl	4068 <__aeabi_uidiv>
    1e94:	0003      	movs	r3, r0
    1e96:	1ae3      	subs	r3, r4, r3
    1e98:	613b      	str	r3, [r7, #16]
    1e9a:	197b      	adds	r3, r7, r5
    1e9c:	881a      	ldrh	r2, [r3, #0]
    1e9e:	197b      	adds	r3, r7, r5
    1ea0:	3201      	adds	r2, #1
    1ea2:	801a      	strh	r2, [r3, #0]
    1ea4:	68bb      	ldr	r3, [r7, #8]
    1ea6:	681b      	ldr	r3, [r3, #0]
    1ea8:	2164      	movs	r1, #100	; 0x64
    1eaa:	0018      	movs	r0, r3
    1eac:	f002 f8dc 	bl	4068 <__aeabi_uidiv>
    1eb0:	0003      	movs	r3, r0
    1eb2:	001a      	movs	r2, r3
    1eb4:	0013      	movs	r3, r2
    1eb6:	005b      	lsls	r3, r3, #1
    1eb8:	189b      	adds	r3, r3, r2
    1eba:	693a      	ldr	r2, [r7, #16]
    1ebc:	429a      	cmp	r2, r3
    1ebe:	d901      	bls.n	1ec4 <UART_Init+0xe0>
    1ec0:	4b3e      	ldr	r3, [pc, #248]	; (1fbc <UART_Init+0x1d8>)
    1ec2:	e072      	b.n	1faa <UART_Init+0x1c6>
    1ec4:	68fb      	ldr	r3, [r7, #12]
    1ec6:	0018      	movs	r0, r3
    1ec8:	f7ff ff62 	bl	1d90 <UART_GetInstance>
    1ecc:	0002      	movs	r2, r0
    1ece:	4b3c      	ldr	r3, [pc, #240]	; (1fc0 <UART_Init+0x1dc>)
    1ed0:	0092      	lsls	r2, r2, #2
    1ed2:	58d3      	ldr	r3, [r2, r3]
    1ed4:	0018      	movs	r0, r3
    1ed6:	f7ff ff41 	bl	1d5c <CLOCK_EnableClock>
    1eda:	68fb      	ldr	r3, [r7, #12]
    1edc:	78db      	ldrb	r3, [r3, #3]
    1ede:	b2db      	uxtb	r3, r3
    1ee0:	220c      	movs	r2, #12
    1ee2:	4393      	bics	r3, r2
    1ee4:	b2da      	uxtb	r2, r3
    1ee6:	68fb      	ldr	r3, [r7, #12]
    1ee8:	70da      	strb	r2, [r3, #3]
    1eea:	68fb      	ldr	r3, [r7, #12]
    1eec:	781b      	ldrb	r3, [r3, #0]
    1eee:	b2db      	uxtb	r3, r3
    1ef0:	221f      	movs	r2, #31
    1ef2:	4393      	bics	r3, r2
    1ef4:	b2da      	uxtb	r2, r3
    1ef6:	2116      	movs	r1, #22
    1ef8:	187b      	adds	r3, r7, r1
    1efa:	881b      	ldrh	r3, [r3, #0]
    1efc:	0a1b      	lsrs	r3, r3, #8
    1efe:	b29b      	uxth	r3, r3
    1f00:	b2db      	uxtb	r3, r3
    1f02:	4313      	orrs	r3, r2
    1f04:	b2da      	uxtb	r2, r3
    1f06:	68fb      	ldr	r3, [r7, #12]
    1f08:	701a      	strb	r2, [r3, #0]
    1f0a:	187b      	adds	r3, r7, r1
    1f0c:	881b      	ldrh	r3, [r3, #0]
    1f0e:	b2da      	uxtb	r2, r3
    1f10:	68fb      	ldr	r3, [r7, #12]
    1f12:	705a      	strb	r2, [r3, #1]
    1f14:	68fb      	ldr	r3, [r7, #12]
    1f16:	789b      	ldrb	r3, [r3, #2]
    1f18:	b2da      	uxtb	r2, r3
    1f1a:	2015      	movs	r0, #21
    1f1c:	183b      	adds	r3, r7, r0
    1f1e:	2113      	movs	r1, #19
    1f20:	438a      	bics	r2, r1
    1f22:	701a      	strb	r2, [r3, #0]
    1f24:	68bb      	ldr	r3, [r7, #8]
    1f26:	791b      	ldrb	r3, [r3, #4]
    1f28:	2b00      	cmp	r3, #0
    1f2a:	d009      	beq.n	1f40 <UART_Init+0x15c>
    1f2c:	68bb      	ldr	r3, [r7, #8]
    1f2e:	791a      	ldrb	r2, [r3, #4]
    1f30:	183b      	adds	r3, r7, r0
    1f32:	781b      	ldrb	r3, [r3, #0]
    1f34:	4313      	orrs	r3, r2
    1f36:	b2da      	uxtb	r2, r3
    1f38:	183b      	adds	r3, r7, r0
    1f3a:	2110      	movs	r1, #16
    1f3c:	430a      	orrs	r2, r1
    1f3e:	701a      	strb	r2, [r3, #0]
    1f40:	68fb      	ldr	r3, [r7, #12]
    1f42:	2015      	movs	r0, #21
    1f44:	183a      	adds	r2, r7, r0
    1f46:	7812      	ldrb	r2, [r2, #0]
    1f48:	709a      	strb	r2, [r3, #2]
    1f4a:	68fb      	ldr	r3, [r7, #12]
    1f4c:	781b      	ldrb	r3, [r3, #0]
    1f4e:	b2db      	uxtb	r3, r3
    1f50:	2220      	movs	r2, #32
    1f52:	4393      	bics	r3, r2
    1f54:	b2da      	uxtb	r2, r3
    1f56:	68bb      	ldr	r3, [r7, #8]
    1f58:	795b      	ldrb	r3, [r3, #5]
    1f5a:	015b      	lsls	r3, r3, #5
    1f5c:	b2db      	uxtb	r3, r3
    1f5e:	2120      	movs	r1, #32
    1f60:	400b      	ands	r3, r1
    1f62:	b2db      	uxtb	r3, r3
    1f64:	4313      	orrs	r3, r2
    1f66:	b2da      	uxtb	r2, r3
    1f68:	68fb      	ldr	r3, [r7, #12]
    1f6a:	701a      	strb	r2, [r3, #0]
    1f6c:	183b      	adds	r3, r7, r0
    1f6e:	68fa      	ldr	r2, [r7, #12]
    1f70:	78d2      	ldrb	r2, [r2, #3]
    1f72:	701a      	strb	r2, [r3, #0]
    1f74:	68bb      	ldr	r3, [r7, #8]
    1f76:	799b      	ldrb	r3, [r3, #6]
    1f78:	2b00      	cmp	r3, #0
    1f7a:	d005      	beq.n	1f88 <UART_Init+0x1a4>
    1f7c:	183b      	adds	r3, r7, r0
    1f7e:	183a      	adds	r2, r7, r0
    1f80:	7812      	ldrb	r2, [r2, #0]
    1f82:	2108      	movs	r1, #8
    1f84:	430a      	orrs	r2, r1
    1f86:	701a      	strb	r2, [r3, #0]
    1f88:	68bb      	ldr	r3, [r7, #8]
    1f8a:	79db      	ldrb	r3, [r3, #7]
    1f8c:	2b00      	cmp	r3, #0
    1f8e:	d006      	beq.n	1f9e <UART_Init+0x1ba>
    1f90:	2215      	movs	r2, #21
    1f92:	18bb      	adds	r3, r7, r2
    1f94:	18ba      	adds	r2, r7, r2
    1f96:	7812      	ldrb	r2, [r2, #0]
    1f98:	2104      	movs	r1, #4
    1f9a:	430a      	orrs	r2, r1
    1f9c:	701a      	strb	r2, [r3, #0]
    1f9e:	68fb      	ldr	r3, [r7, #12]
    1fa0:	2215      	movs	r2, #21
    1fa2:	18ba      	adds	r2, r7, r2
    1fa4:	7812      	ldrb	r2, [r2, #0]
    1fa6:	70da      	strb	r2, [r3, #3]
    1fa8:	2300      	movs	r3, #0
    1faa:	0018      	movs	r0, r3
    1fac:	46bd      	mov	sp, r7
    1fae:	b006      	add	sp, #24
    1fb0:	bdb0      	pop	{r4, r5, r7, pc}
    1fb2:	46c0      	nop			; (mov r8, r8)
    1fb4:	00004ea4 	.word	0x00004ea4
    1fb8:	00004ec0 	.word	0x00004ec0
    1fbc:	000003f5 	.word	0x000003f5
    1fc0:	00004e6c 	.word	0x00004e6c

00001fc4 <UART_GetDefaultConfig>:
    1fc4:	b580      	push	{r7, lr}
    1fc6:	b082      	sub	sp, #8
    1fc8:	af00      	add	r7, sp, #0
    1fca:	6078      	str	r0, [r7, #4]
    1fcc:	687b      	ldr	r3, [r7, #4]
    1fce:	2b00      	cmp	r3, #0
    1fd0:	d103      	bne.n	1fda <UART_GetDefaultConfig+0x16>
    1fd2:	4b0c      	ldr	r3, [pc, #48]	; (2004 <_StackSize+0x4>)
    1fd4:	0018      	movs	r0, r3
    1fd6:	f000 f995 	bl	2304 <__assertion_failed>
    1fda:	687b      	ldr	r3, [r7, #4]
    1fdc:	22e1      	movs	r2, #225	; 0xe1
    1fde:	0252      	lsls	r2, r2, #9
    1fe0:	601a      	str	r2, [r3, #0]
    1fe2:	687b      	ldr	r3, [r7, #4]
    1fe4:	2200      	movs	r2, #0
    1fe6:	711a      	strb	r2, [r3, #4]
    1fe8:	687b      	ldr	r3, [r7, #4]
    1fea:	2200      	movs	r2, #0
    1fec:	715a      	strb	r2, [r3, #5]
    1fee:	687b      	ldr	r3, [r7, #4]
    1ff0:	2200      	movs	r2, #0
    1ff2:	719a      	strb	r2, [r3, #6]
    1ff4:	687b      	ldr	r3, [r7, #4]
    1ff6:	2200      	movs	r2, #0
    1ff8:	71da      	strb	r2, [r3, #7]
    1ffa:	46c0      	nop			; (mov r8, r8)
    1ffc:	46bd      	mov	sp, r7
    1ffe:	b002      	add	sp, #8
    2000:	bd80      	pop	{r7, pc}
    2002:	46c0      	nop			; (mov r8, r8)
    2004:	00004ee8 	.word	0x00004ee8

00002008 <UART_ReadBlocking>:
    2008:	b580      	push	{r7, lr}
    200a:	b086      	sub	sp, #24
    200c:	af00      	add	r7, sp, #0
    200e:	60f8      	str	r0, [r7, #12]
    2010:	60b9      	str	r1, [r7, #8]
    2012:	607a      	str	r2, [r7, #4]
    2014:	68bb      	ldr	r3, [r7, #8]
    2016:	2b00      	cmp	r3, #0
    2018:	d130      	bne.n	207c <UART_ReadBlocking+0x74>
    201a:	4b1d      	ldr	r3, [pc, #116]	; (2090 <UART_ReadBlocking+0x88>)
    201c:	0018      	movs	r0, r3
    201e:	f000 f971 	bl	2304 <__assertion_failed>
    2022:	68fb      	ldr	r3, [r7, #12]
    2024:	0018      	movs	r0, r3
    2026:	f001 ff91 	bl	3f4c <UART_GetStatusFlags>
    202a:	0003      	movs	r3, r0
    202c:	617b      	str	r3, [r7, #20]
    202e:	697b      	ldr	r3, [r7, #20]
    2030:	2208      	movs	r2, #8
    2032:	4013      	ands	r3, r2
    2034:	d001      	beq.n	203a <UART_ReadBlocking+0x32>
    2036:	4b17      	ldr	r3, [pc, #92]	; (2094 <UART_ReadBlocking+0x8c>)
    2038:	e026      	b.n	2088 <UART_ReadBlocking+0x80>
    203a:	697b      	ldr	r3, [r7, #20]
    203c:	2204      	movs	r2, #4
    203e:	4013      	ands	r3, r2
    2040:	d001      	beq.n	2046 <UART_ReadBlocking+0x3e>
    2042:	4b15      	ldr	r3, [pc, #84]	; (2098 <UART_ReadBlocking+0x90>)
    2044:	e020      	b.n	2088 <UART_ReadBlocking+0x80>
    2046:	697b      	ldr	r3, [r7, #20]
    2048:	2202      	movs	r2, #2
    204a:	4013      	ands	r3, r2
    204c:	d001      	beq.n	2052 <UART_ReadBlocking+0x4a>
    204e:	4b13      	ldr	r3, [pc, #76]	; (209c <UART_ReadBlocking+0x94>)
    2050:	e01a      	b.n	2088 <UART_ReadBlocking+0x80>
    2052:	697b      	ldr	r3, [r7, #20]
    2054:	2201      	movs	r2, #1
    2056:	4013      	ands	r3, r2
    2058:	d002      	beq.n	2060 <UART_ReadBlocking+0x58>
    205a:	23fd      	movs	r3, #253	; 0xfd
    205c:	009b      	lsls	r3, r3, #2
    205e:	e013      	b.n	2088 <UART_ReadBlocking+0x80>
    2060:	68fb      	ldr	r3, [r7, #12]
    2062:	791b      	ldrb	r3, [r3, #4]
    2064:	b2db      	uxtb	r3, r3
    2066:	001a      	movs	r2, r3
    2068:	2320      	movs	r3, #32
    206a:	4013      	ands	r3, r2
    206c:	d0d9      	beq.n	2022 <UART_ReadBlocking+0x1a>
    206e:	68bb      	ldr	r3, [r7, #8]
    2070:	1c5a      	adds	r2, r3, #1
    2072:	60ba      	str	r2, [r7, #8]
    2074:	68fa      	ldr	r2, [r7, #12]
    2076:	79d2      	ldrb	r2, [r2, #7]
    2078:	b2d2      	uxtb	r2, r2
    207a:	701a      	strb	r2, [r3, #0]
    207c:	687b      	ldr	r3, [r7, #4]
    207e:	1e5a      	subs	r2, r3, #1
    2080:	607a      	str	r2, [r7, #4]
    2082:	2b00      	cmp	r3, #0
    2084:	d1ec      	bne.n	2060 <UART_ReadBlocking+0x58>
    2086:	2300      	movs	r3, #0
    2088:	0018      	movs	r0, r3
    208a:	46bd      	mov	sp, r7
    208c:	b006      	add	sp, #24
    208e:	bd80      	pop	{r7, pc}
    2090:	00004f04 	.word	0x00004f04
    2094:	000003f1 	.word	0x000003f1
    2098:	000003f2 	.word	0x000003f2
    209c:	000003f3 	.word	0x000003f3

000020a0 <UART1_DriverIRQHandler>:
    20a0:	b580      	push	{r7, lr}
    20a2:	af00      	add	r7, sp, #0
    20a4:	4b04      	ldr	r3, [pc, #16]	; (20b8 <UART1_DriverIRQHandler+0x18>)
    20a6:	681a      	ldr	r2, [r3, #0]
    20a8:	4b04      	ldr	r3, [pc, #16]	; (20bc <UART1_DriverIRQHandler+0x1c>)
    20aa:	685b      	ldr	r3, [r3, #4]
    20ac:	4804      	ldr	r0, [pc, #16]	; (20c0 <UART1_DriverIRQHandler+0x20>)
    20ae:	0019      	movs	r1, r3
    20b0:	4790      	blx	r2
    20b2:	46c0      	nop			; (mov r8, r8)
    20b4:	46bd      	mov	sp, r7
    20b6:	bd80      	pop	{r7, pc}
    20b8:	1ffff0b8 	.word	0x1ffff0b8
    20bc:	1ffff0ac 	.word	0x1ffff0ac
    20c0:	4006b000 	.word	0x4006b000

000020c4 <UART2_DriverIRQHandler>:
    20c4:	b580      	push	{r7, lr}
    20c6:	af00      	add	r7, sp, #0
    20c8:	4b04      	ldr	r3, [pc, #16]	; (20dc <UART2_DriverIRQHandler+0x18>)
    20ca:	681a      	ldr	r2, [r3, #0]
    20cc:	4b04      	ldr	r3, [pc, #16]	; (20e0 <UART2_DriverIRQHandler+0x1c>)
    20ce:	689b      	ldr	r3, [r3, #8]
    20d0:	4804      	ldr	r0, [pc, #16]	; (20e4 <UART2_DriverIRQHandler+0x20>)
    20d2:	0019      	movs	r1, r3
    20d4:	4790      	blx	r2
    20d6:	46c0      	nop			; (mov r8, r8)
    20d8:	46bd      	mov	sp, r7
    20da:	bd80      	pop	{r7, pc}
    20dc:	1ffff0b8 	.word	0x1ffff0b8
    20e0:	1ffff0ac 	.word	0x1ffff0ac
    20e4:	4006c000 	.word	0x4006c000

000020e8 <CLOCK_SetLpsci0Clock>:
    20e8:	b580      	push	{r7, lr}
    20ea:	b082      	sub	sp, #8
    20ec:	af00      	add	r7, sp, #0
    20ee:	6078      	str	r0, [r7, #4]
    20f0:	4a08      	ldr	r2, [pc, #32]	; (2114 <CLOCK_SetLpsci0Clock+0x2c>)
    20f2:	4b09      	ldr	r3, [pc, #36]	; (2118 <CLOCK_SetLpsci0Clock+0x30>)
    20f4:	58d3      	ldr	r3, [r2, r3]
    20f6:	4a09      	ldr	r2, [pc, #36]	; (211c <CLOCK_SetLpsci0Clock+0x34>)
    20f8:	401a      	ands	r2, r3
    20fa:	687b      	ldr	r3, [r7, #4]
    20fc:	0699      	lsls	r1, r3, #26
    20fe:	23c0      	movs	r3, #192	; 0xc0
    2100:	051b      	lsls	r3, r3, #20
    2102:	400b      	ands	r3, r1
    2104:	4903      	ldr	r1, [pc, #12]	; (2114 <CLOCK_SetLpsci0Clock+0x2c>)
    2106:	4313      	orrs	r3, r2
    2108:	4a03      	ldr	r2, [pc, #12]	; (2118 <CLOCK_SetLpsci0Clock+0x30>)
    210a:	508b      	str	r3, [r1, r2]
    210c:	46c0      	nop			; (mov r8, r8)
    210e:	46bd      	mov	sp, r7
    2110:	b002      	add	sp, #8
    2112:	bd80      	pop	{r7, pc}
    2114:	40047000 	.word	0x40047000
    2118:	00001004 	.word	0x00001004
    211c:	f3ffffff 	.word	0xf3ffffff

00002120 <BOARD_InitDebugConsole>:
    2120:	b580      	push	{r7, lr}
    2122:	b082      	sub	sp, #8
    2124:	af00      	add	r7, sp, #0
    2126:	2001      	movs	r0, #1
    2128:	f7ff ffde 	bl	20e8 <CLOCK_SetLpsci0Clock>
    212c:	f7ff f936 	bl	139c <CLOCK_GetPllFllSelClkFreq>
    2130:	0003      	movs	r3, r0
    2132:	607b      	str	r3, [r7, #4]
    2134:	687b      	ldr	r3, [r7, #4]
    2136:	22e1      	movs	r2, #225	; 0xe1
    2138:	0251      	lsls	r1, r2, #9
    213a:	4804      	ldr	r0, [pc, #16]	; (214c <BOARD_InitDebugConsole+0x2c>)
    213c:	2203      	movs	r2, #3
    213e:	f7fe f967 	bl	410 <DbgConsole_Init>
    2142:	46c0      	nop			; (mov r8, r8)
    2144:	46bd      	mov	sp, r7
    2146:	b002      	add	sp, #8
    2148:	bd80      	pop	{r7, pc}
    214a:	46c0      	nop			; (mov r8, r8)
    214c:	4006a000 	.word	0x4006a000

00002150 <CLOCK_SetSimSafeDivs>:
    2150:	b580      	push	{r7, lr}
    2152:	af00      	add	r7, sp, #0
    2154:	4a03      	ldr	r2, [pc, #12]	; (2164 <CLOCK_SetSimSafeDivs+0x14>)
    2156:	4b04      	ldr	r3, [pc, #16]	; (2168 <CLOCK_SetSimSafeDivs+0x18>)
    2158:	4904      	ldr	r1, [pc, #16]	; (216c <CLOCK_SetSimSafeDivs+0x1c>)
    215a:	50d1      	str	r1, [r2, r3]
    215c:	46c0      	nop			; (mov r8, r8)
    215e:	46bd      	mov	sp, r7
    2160:	bd80      	pop	{r7, pc}
    2162:	46c0      	nop			; (mov r8, r8)
    2164:	40047000 	.word	0x40047000
    2168:	00001044 	.word	0x00001044
    216c:	10030000 	.word	0x10030000

00002170 <CLOCK_SetXtal0Freq>:
    2170:	b580      	push	{r7, lr}
    2172:	b082      	sub	sp, #8
    2174:	af00      	add	r7, sp, #0
    2176:	6078      	str	r0, [r7, #4]
    2178:	4b03      	ldr	r3, [pc, #12]	; (2188 <CLOCK_SetXtal0Freq+0x18>)
    217a:	687a      	ldr	r2, [r7, #4]
    217c:	601a      	str	r2, [r3, #0]
    217e:	46c0      	nop			; (mov r8, r8)
    2180:	46bd      	mov	sp, r7
    2182:	b002      	add	sp, #8
    2184:	bd80      	pop	{r7, pc}
    2186:	46c0      	nop			; (mov r8, r8)
    2188:	1ffff0a0 	.word	0x1ffff0a0

0000218c <CLOCK_CONFIG_SetFllExtRefDiv>:
    218c:	b580      	push	{r7, lr}
    218e:	b082      	sub	sp, #8
    2190:	af00      	add	r7, sp, #0
    2192:	0002      	movs	r2, r0
    2194:	1dfb      	adds	r3, r7, #7
    2196:	701a      	strb	r2, [r3, #0]
    2198:	4b0a      	ldr	r3, [pc, #40]	; (21c4 <CLOCK_CONFIG_SetFllExtRefDiv+0x38>)
    219a:	781b      	ldrb	r3, [r3, #0]
    219c:	b2db      	uxtb	r3, r3
    219e:	2238      	movs	r2, #56	; 0x38
    21a0:	4393      	bics	r3, r2
    21a2:	b2da      	uxtb	r2, r3
    21a4:	1dfb      	adds	r3, r7, #7
    21a6:	781b      	ldrb	r3, [r3, #0]
    21a8:	00db      	lsls	r3, r3, #3
    21aa:	b2db      	uxtb	r3, r3
    21ac:	2138      	movs	r1, #56	; 0x38
    21ae:	400b      	ands	r3, r1
    21b0:	b2db      	uxtb	r3, r3
    21b2:	4904      	ldr	r1, [pc, #16]	; (21c4 <CLOCK_CONFIG_SetFllExtRefDiv+0x38>)
    21b4:	4313      	orrs	r3, r2
    21b6:	b2db      	uxtb	r3, r3
    21b8:	700b      	strb	r3, [r1, #0]
    21ba:	46c0      	nop			; (mov r8, r8)
    21bc:	46bd      	mov	sp, r7
    21be:	b002      	add	sp, #8
    21c0:	bd80      	pop	{r7, pc}
    21c2:	46c0      	nop			; (mov r8, r8)
    21c4:	40064000 	.word	0x40064000

000021c8 <BOARD_BootClockRUN>:
    21c8:	b580      	push	{r7, lr}
    21ca:	af00      	add	r7, sp, #0
    21cc:	f7ff ffc0 	bl	2150 <CLOCK_SetSimSafeDivs>
    21d0:	4b10      	ldr	r3, [pc, #64]	; (2214 <BOARD_BootClockRUN+0x4c>)
    21d2:	0018      	movs	r0, r3
    21d4:	f7ff fa7a 	bl	16cc <CLOCK_InitOsc0>
    21d8:	4b0f      	ldr	r3, [pc, #60]	; (2218 <BOARD_BootClockRUN+0x50>)
    21da:	0018      	movs	r0, r3
    21dc:	f7ff ffc8 	bl	2170 <CLOCK_SetXtal0Freq>
    21e0:	2300      	movs	r3, #0
    21e2:	0018      	movs	r0, r3
    21e4:	f7ff ffd2 	bl	218c <CLOCK_CONFIG_SetFllExtRefDiv>
    21e8:	4b0c      	ldr	r3, [pc, #48]	; (221c <BOARD_BootClockRUN+0x54>)
    21ea:	001a      	movs	r2, r3
    21ec:	2100      	movs	r1, #0
    21ee:	2000      	movs	r0, #0
    21f0:	f7ff fb0e 	bl	1810 <CLOCK_BootToPeeMode>
    21f4:	2302      	movs	r3, #2
    21f6:	2100      	movs	r1, #0
    21f8:	2200      	movs	r2, #0
    21fa:	0018      	movs	r0, r3
    21fc:	f7ff f98a 	bl	1514 <CLOCK_SetInternalRefClkConfig>
    2200:	4b07      	ldr	r3, [pc, #28]	; (2220 <BOARD_BootClockRUN+0x58>)
    2202:	0018      	movs	r0, r3
    2204:	f7ff f8f0 	bl	13e8 <CLOCK_SetSimConfig>
    2208:	4b06      	ldr	r3, [pc, #24]	; (2224 <BOARD_BootClockRUN+0x5c>)
    220a:	4a07      	ldr	r2, [pc, #28]	; (2228 <BOARD_BootClockRUN+0x60>)
    220c:	601a      	str	r2, [r3, #0]
    220e:	46c0      	nop			; (mov r8, r8)
    2210:	46bd      	mov	sp, r7
    2212:	bd80      	pop	{r7, pc}
    2214:	00004f30 	.word	0x00004f30
    2218:	007a1200 	.word	0x007a1200
    221c:	00004f23 	.word	0x00004f23
    2220:	00004f28 	.word	0x00004f28
    2224:	1ffff084 	.word	0x1ffff084
    2228:	02dc6c00 	.word	0x02dc6c00

0000222c <CLOCK_EnableClock>:
    222c:	b580      	push	{r7, lr}
    222e:	b084      	sub	sp, #16
    2230:	af00      	add	r7, sp, #0
    2232:	6078      	str	r0, [r7, #4]
    2234:	687b      	ldr	r3, [r7, #4]
    2236:	0c1b      	lsrs	r3, r3, #16
    2238:	4a08      	ldr	r2, [pc, #32]	; (225c <CLOCK_EnableClock+0x30>)
    223a:	4694      	mov	ip, r2
    223c:	4463      	add	r3, ip
    223e:	60fb      	str	r3, [r7, #12]
    2240:	68fb      	ldr	r3, [r7, #12]
    2242:	6819      	ldr	r1, [r3, #0]
    2244:	687b      	ldr	r3, [r7, #4]
    2246:	041b      	lsls	r3, r3, #16
    2248:	0c1b      	lsrs	r3, r3, #16
    224a:	2201      	movs	r2, #1
    224c:	409a      	lsls	r2, r3
    224e:	68fb      	ldr	r3, [r7, #12]
    2250:	430a      	orrs	r2, r1
    2252:	601a      	str	r2, [r3, #0]
    2254:	46c0      	nop			; (mov r8, r8)
    2256:	46bd      	mov	sp, r7
    2258:	b004      	add	sp, #16
    225a:	bd80      	pop	{r7, pc}
    225c:	40047000 	.word	0x40047000

00002260 <PORT_SetPinMux>:
    2260:	b580      	push	{r7, lr}
    2262:	b084      	sub	sp, #16
    2264:	af00      	add	r7, sp, #0
    2266:	60f8      	str	r0, [r7, #12]
    2268:	60b9      	str	r1, [r7, #8]
    226a:	1dfb      	adds	r3, r7, #7
    226c:	701a      	strb	r2, [r3, #0]
    226e:	68fb      	ldr	r3, [r7, #12]
    2270:	68ba      	ldr	r2, [r7, #8]
    2272:	0092      	lsls	r2, r2, #2
    2274:	58d3      	ldr	r3, [r2, r3]
    2276:	4a09      	ldr	r2, [pc, #36]	; (229c <PORT_SetPinMux+0x3c>)
    2278:	401a      	ands	r2, r3
    227a:	1dfb      	adds	r3, r7, #7
    227c:	781b      	ldrb	r3, [r3, #0]
    227e:	0219      	lsls	r1, r3, #8
    2280:	23e0      	movs	r3, #224	; 0xe0
    2282:	00db      	lsls	r3, r3, #3
    2284:	400b      	ands	r3, r1
    2286:	431a      	orrs	r2, r3
    2288:	0011      	movs	r1, r2
    228a:	68fb      	ldr	r3, [r7, #12]
    228c:	68ba      	ldr	r2, [r7, #8]
    228e:	0092      	lsls	r2, r2, #2
    2290:	50d1      	str	r1, [r2, r3]
    2292:	46c0      	nop			; (mov r8, r8)
    2294:	46bd      	mov	sp, r7
    2296:	b004      	add	sp, #16
    2298:	bd80      	pop	{r7, pc}
    229a:	46c0      	nop			; (mov r8, r8)
    229c:	fffff8ff 	.word	0xfffff8ff

000022a0 <BOARD_InitPins>:
    22a0:	b580      	push	{r7, lr}
    22a2:	af00      	add	r7, sp, #0
    22a4:	4b0d      	ldr	r3, [pc, #52]	; (22dc <BOARD_InitPins+0x3c>)
    22a6:	0018      	movs	r0, r3
    22a8:	f7ff ffc0 	bl	222c <CLOCK_EnableClock>
    22ac:	4b0c      	ldr	r3, [pc, #48]	; (22e0 <BOARD_InitPins+0x40>)
    22ae:	2202      	movs	r2, #2
    22b0:	2101      	movs	r1, #1
    22b2:	0018      	movs	r0, r3
    22b4:	f7ff ffd4 	bl	2260 <PORT_SetPinMux>
    22b8:	4b09      	ldr	r3, [pc, #36]	; (22e0 <BOARD_InitPins+0x40>)
    22ba:	2202      	movs	r2, #2
    22bc:	2102      	movs	r1, #2
    22be:	0018      	movs	r0, r3
    22c0:	f7ff ffce 	bl	2260 <PORT_SetPinMux>
    22c4:	4a07      	ldr	r2, [pc, #28]	; (22e4 <BOARD_InitPins+0x44>)
    22c6:	4b08      	ldr	r3, [pc, #32]	; (22e8 <BOARD_InitPins+0x48>)
    22c8:	58d3      	ldr	r3, [r2, r3]
    22ca:	4906      	ldr	r1, [pc, #24]	; (22e4 <BOARD_InitPins+0x44>)
    22cc:	2207      	movs	r2, #7
    22ce:	4393      	bics	r3, r2
    22d0:	4a05      	ldr	r2, [pc, #20]	; (22e8 <BOARD_InitPins+0x48>)
    22d2:	508b      	str	r3, [r1, r2]
    22d4:	46c0      	nop			; (mov r8, r8)
    22d6:	46bd      	mov	sp, r7
    22d8:	bd80      	pop	{r7, pc}
    22da:	46c0      	nop			; (mov r8, r8)
    22dc:	10380009 	.word	0x10380009
    22e0:	40049000 	.word	0x40049000
    22e4:	40047000 	.word	0x40047000
    22e8:	00001010 	.word	0x00001010

000022ec <SystemInit>:
    22ec:	b580      	push	{r7, lr}
    22ee:	af00      	add	r7, sp, #0
    22f0:	4a03      	ldr	r2, [pc, #12]	; (2300 <SystemInit+0x14>)
    22f2:	2388      	movs	r3, #136	; 0x88
    22f4:	015b      	lsls	r3, r3, #5
    22f6:	2100      	movs	r1, #0
    22f8:	50d1      	str	r1, [r2, r3]
    22fa:	46c0      	nop			; (mov r8, r8)
    22fc:	46bd      	mov	sp, r7
    22fe:	bd80      	pop	{r7, pc}
    2300:	40047000 	.word	0x40047000

00002304 <__assertion_failed>:
    2304:	b570      	push	{r4, r5, r6, lr}
    2306:	0005      	movs	r5, r0
    2308:	4c0e      	ldr	r4, [pc, #56]	; (2344 <__assertion_failed+0x40>)
    230a:	480f      	ldr	r0, [pc, #60]	; (2348 <__assertion_failed+0x44>)
    230c:	0021      	movs	r1, r4
    230e:	f001 fe86 	bl	401e <fputs>
    2312:	0021      	movs	r1, r4
    2314:	0028      	movs	r0, r5
    2316:	f001 fe82 	bl	401e <fputs>
    231a:	4a0c      	ldr	r2, [pc, #48]	; (234c <__assertion_failed+0x48>)
    231c:	1d11      	adds	r1, r2, #4
    231e:	6fcb      	ldr	r3, [r1, #124]	; 0x7c
    2320:	3b01      	subs	r3, #1
    2322:	67cb      	str	r3, [r1, #124]	; 0x7c
    2324:	2b00      	cmp	r3, #0
    2326:	db07      	blt.n	2338 <__assertion_failed+0x34>
    2328:	6f93      	ldr	r3, [r2, #120]	; 0x78
    232a:	1c59      	adds	r1, r3, #1
    232c:	6791      	str	r1, [r2, #120]	; 0x78
    232e:	220a      	movs	r2, #10
    2330:	701a      	strb	r2, [r3, #0]
    2332:	f001 fe55 	bl	3fe0 <__sys_appexit>
    2336:	bd70      	pop	{r4, r5, r6, pc}
    2338:	0021      	movs	r1, r4
    233a:	200a      	movs	r0, #10
    233c:	f000 f828 	bl	2390 <__flsbuf>
    2340:	e7f7      	b.n	2332 <__assertion_failed+0x2e>
    2342:	46c0      	nop			; (mov r8, r8)
    2344:	1ffff134 	.word	0x1ffff134
    2348:	00004f3c 	.word	0x00004f3c
    234c:	1ffff0bc 	.word	0x1ffff0bc

00002350 <_deferredlazyseek>:
    2350:	2320      	movs	r3, #32
    2352:	68c2      	ldr	r2, [r0, #12]
    2354:	b510      	push	{r4, lr}
    2356:	439a      	bics	r2, r3
    2358:	60c2      	str	r2, [r0, #12]
    235a:	6983      	ldr	r3, [r0, #24]
    235c:	6a82      	ldr	r2, [r0, #40]	; 0x28
    235e:	0004      	movs	r4, r0
    2360:	4293      	cmp	r3, r2
    2362:	d00c      	beq.n	237e <_deferredlazyseek+0x2e>
    2364:	f000 f8bc 	bl	24e0 <_fflush>
    2368:	68e3      	ldr	r3, [r4, #12]
    236a:	4a07      	ldr	r2, [pc, #28]	; (2388 <_deferredlazyseek+0x38>)
    236c:	401a      	ands	r2, r3
    236e:	2310      	movs	r3, #16
    2370:	4313      	orrs	r3, r2
    2372:	60e3      	str	r3, [r4, #12]
    2374:	6aa3      	ldr	r3, [r4, #40]	; 0x28
    2376:	61a3      	str	r3, [r4, #24]
    2378:	6923      	ldr	r3, [r4, #16]
    237a:	62e3      	str	r3, [r4, #44]	; 0x2c
    237c:	6023      	str	r3, [r4, #0]
    237e:	68e2      	ldr	r2, [r4, #12]
    2380:	4b02      	ldr	r3, [pc, #8]	; (238c <_deferredlazyseek+0x3c>)
    2382:	4013      	ands	r3, r2
    2384:	60e3      	str	r3, [r4, #12]
    2386:	bd10      	pop	{r4, pc}
    2388:	ffffcfef 	.word	0xffffcfef
    238c:	ffffbfbf 	.word	0xffffbfbf

00002390 <__flsbuf>:
    2390:	b5f8      	push	{r3, r4, r5, r6, r7, lr}
    2392:	68ca      	ldr	r2, [r1, #12]
    2394:	4b4f      	ldr	r3, [pc, #316]	; (24d4 <__flsbuf+0x144>)
    2396:	0005      	movs	r5, r0
    2398:	4013      	ands	r3, r2
    239a:	000c      	movs	r4, r1
    239c:	60cb      	str	r3, [r1, #12]
    239e:	0693      	lsls	r3, r2, #26
    23a0:	d502      	bpl.n	23a8 <__flsbuf+0x18>
    23a2:	0008      	movs	r0, r1
    23a4:	f7ff ffd4 	bl	2350 <_deferredlazyseek>
    23a8:	68a2      	ldr	r2, [r4, #8]
    23aa:	68e6      	ldr	r6, [r4, #12]
    23ac:	1c53      	adds	r3, r2, #1
    23ae:	da0f      	bge.n	23d0 <__flsbuf+0x40>
    23b0:	05b3      	lsls	r3, r6, #22
    23b2:	d40d      	bmi.n	23d0 <__flsbuf+0x40>
    23b4:	2302      	movs	r3, #2
    23b6:	425b      	negs	r3, r3
    23b8:	1a9b      	subs	r3, r3, r2
    23ba:	60a3      	str	r3, [r4, #8]
    23bc:	2390      	movs	r3, #144	; 0x90
    23be:	025b      	lsls	r3, r3, #9
    23c0:	431e      	orrs	r6, r3
    23c2:	6823      	ldr	r3, [r4, #0]
    23c4:	60e6      	str	r6, [r4, #12]
    23c6:	1c5a      	adds	r2, r3, #1
    23c8:	6022      	str	r2, [r4, #0]
    23ca:	701d      	strb	r5, [r3, #0]
    23cc:	b2e8      	uxtb	r0, r5
    23ce:	e00a      	b.n	23e6 <__flsbuf+0x56>
    23d0:	4a41      	ldr	r2, [pc, #260]	; (24d8 <__flsbuf+0x148>)
    23d2:	4032      	ands	r2, r6
    23d4:	2a02      	cmp	r2, #2
    23d6:	d007      	beq.n	23e8 <__flsbuf+0x58>
    23d8:	2300      	movs	r3, #0
    23da:	60a3      	str	r3, [r4, #8]
    23dc:	3380      	adds	r3, #128	; 0x80
    23de:	431e      	orrs	r6, r3
    23e0:	60e6      	str	r6, [r4, #12]
    23e2:	2001      	movs	r0, #1
    23e4:	4240      	negs	r0, r0
    23e6:	bdf8      	pop	{r3, r4, r5, r6, r7, pc}
    23e8:	2180      	movs	r1, #128	; 0x80
    23ea:	4b3c      	ldr	r3, [pc, #240]	; (24dc <__flsbuf+0x14c>)
    23ec:	0209      	lsls	r1, r1, #8
    23ee:	4033      	ands	r3, r6
    23f0:	428b      	cmp	r3, r1
    23f2:	d10a      	bne.n	240a <__flsbuf+0x7a>
    23f4:	2100      	movs	r1, #0
    23f6:	0020      	movs	r0, r4
    23f8:	f000 f94e 	bl	2698 <fseek>
    23fc:	68e3      	ldr	r3, [r4, #12]
    23fe:	069b      	lsls	r3, r3, #26
    2400:	d502      	bpl.n	2408 <__flsbuf+0x78>
    2402:	0020      	movs	r0, r4
    2404:	f7ff ffa4 	bl	2350 <_deferredlazyseek>
    2408:	68e6      	ldr	r6, [r4, #12]
    240a:	2390      	movs	r3, #144	; 0x90
    240c:	22f0      	movs	r2, #240	; 0xf0
    240e:	025b      	lsls	r3, r3, #9
    2410:	4333      	orrs	r3, r6
    2412:	0112      	lsls	r2, r2, #4
    2414:	60e3      	str	r3, [r4, #12]
    2416:	4216      	tst	r6, r2
    2418:	d110      	bne.n	243c <__flsbuf+0xac>
    241a:	6960      	ldr	r0, [r4, #20]
    241c:	f001 feae 	bl	417c <__sys_istty>
    2420:	2800      	cmp	r0, #0
    2422:	d021      	beq.n	2468 <__flsbuf+0xd8>
    2424:	0573      	lsls	r3, r6, #21
    2426:	d51f      	bpl.n	2468 <__flsbuf+0xd8>
    2428:	0023      	movs	r3, r4
    242a:	3324      	adds	r3, #36	; 0x24
    242c:	6123      	str	r3, [r4, #16]
    242e:	6023      	str	r3, [r4, #0]
    2430:	2301      	movs	r3, #1
    2432:	61e3      	str	r3, [r4, #28]
    2434:	2392      	movs	r3, #146	; 0x92
    2436:	025b      	lsls	r3, r3, #9
    2438:	4333      	orrs	r3, r6
    243a:	60e3      	str	r3, [r4, #12]
    243c:	2190      	movs	r1, #144	; 0x90
    243e:	0109      	lsls	r1, r1, #4
    2440:	6822      	ldr	r2, [r4, #0]
    2442:	6926      	ldr	r6, [r4, #16]
    2444:	420b      	tst	r3, r1
    2446:	d025      	beq.n	2494 <__flsbuf+0x104>
    2448:	6ae3      	ldr	r3, [r4, #44]	; 0x2c
    244a:	429a      	cmp	r2, r3
    244c:	d900      	bls.n	2450 <__flsbuf+0xc0>
    244e:	0013      	movs	r3, r2
    2450:	1b99      	subs	r1, r3, r6
    2452:	42b3      	cmp	r3, r6
    2454:	d117      	bne.n	2486 <__flsbuf+0xf6>
    2456:	1c73      	adds	r3, r6, #1
    2458:	62e3      	str	r3, [r4, #44]	; 0x2c
    245a:	6023      	str	r3, [r4, #0]
    245c:	69e3      	ldr	r3, [r4, #28]
    245e:	1e5a      	subs	r2, r3, #1
    2460:	60a2      	str	r2, [r4, #8]
    2462:	6323      	str	r3, [r4, #48]	; 0x30
    2464:	7035      	strb	r5, [r6, #0]
    2466:	e7b1      	b.n	23cc <__flsbuf+0x3c>
    2468:	2780      	movs	r7, #128	; 0x80
    246a:	007f      	lsls	r7, r7, #1
    246c:	0038      	movs	r0, r7
    246e:	f000 f903 	bl	2678 <_Csys_alloc>
    2472:	2394      	movs	r3, #148	; 0x94
    2474:	68e2      	ldr	r2, [r4, #12]
    2476:	025b      	lsls	r3, r3, #9
    2478:	4333      	orrs	r3, r6
    247a:	431a      	orrs	r2, r3
    247c:	6120      	str	r0, [r4, #16]
    247e:	6020      	str	r0, [r4, #0]
    2480:	61e7      	str	r7, [r4, #28]
    2482:	60e2      	str	r2, [r4, #12]
    2484:	e7da      	b.n	243c <__flsbuf+0xac>
    2486:	0022      	movs	r2, r4
    2488:	0030      	movs	r0, r6
    248a:	f000 f859 	bl	2540 <_Cwritebuf>
    248e:	2800      	cmp	r0, #0
    2490:	d0e1      	beq.n	2456 <__flsbuf+0xc6>
    2492:	e7a6      	b.n	23e2 <__flsbuf+0x52>
    2494:	1c51      	adds	r1, r2, #1
    2496:	b2e8      	uxtb	r0, r5
    2498:	6021      	str	r1, [r4, #0]
    249a:	7010      	strb	r0, [r2, #0]
    249c:	6ae2      	ldr	r2, [r4, #44]	; 0x2c
    249e:	6821      	ldr	r1, [r4, #0]
    24a0:	428a      	cmp	r2, r1
    24a2:	d900      	bls.n	24a6 <__flsbuf+0x116>
    24a4:	0011      	movs	r1, r2
    24a6:	69e2      	ldr	r2, [r4, #28]
    24a8:	1b89      	subs	r1, r1, r6
    24aa:	6322      	str	r2, [r4, #48]	; 0x30
    24ac:	055b      	lsls	r3, r3, #21
    24ae:	d404      	bmi.n	24ba <__flsbuf+0x12a>
    24b0:	280a      	cmp	r0, #10
    24b2:	d002      	beq.n	24ba <__flsbuf+0x12a>
    24b4:	428a      	cmp	r2, r1
    24b6:	dd00      	ble.n	24ba <__flsbuf+0x12a>
    24b8:	e788      	b.n	23cc <__flsbuf+0x3c>
    24ba:	2300      	movs	r3, #0
    24bc:	0022      	movs	r2, r4
    24be:	0030      	movs	r0, r6
    24c0:	62e6      	str	r6, [r4, #44]	; 0x2c
    24c2:	6026      	str	r6, [r4, #0]
    24c4:	60a3      	str	r3, [r4, #8]
    24c6:	f000 f83b 	bl	2540 <_Cwritebuf>
    24ca:	2800      	cmp	r0, #0
    24cc:	d000      	beq.n	24d0 <__flsbuf+0x140>
    24ce:	e788      	b.n	23e2 <__flsbuf+0x52>
    24d0:	e77c      	b.n	23cc <__flsbuf+0x3c>
    24d2:	46c0      	nop			; (mov r8, r8)
    24d4:	fff7ffff 	.word	0xfff7ffff
    24d8:	0000108a 	.word	0x0000108a
    24dc:	0000a010 	.word	0x0000a010

000024e0 <_fflush>:
    24e0:	68c3      	ldr	r3, [r0, #12]
    24e2:	4a15      	ldr	r2, [pc, #84]	; (2538 <_fflush+0x58>)
    24e4:	b570      	push	{r4, r5, r6, lr}
    24e6:	401a      	ands	r2, r3
    24e8:	60c2      	str	r2, [r0, #12]
    24ea:	2282      	movs	r2, #130	; 0x82
    24ec:	0004      	movs	r4, r0
    24ee:	6905      	ldr	r5, [r0, #16]
    24f0:	6801      	ldr	r1, [r0, #0]
    24f2:	6ac6      	ldr	r6, [r0, #44]	; 0x2c
    24f4:	401a      	ands	r2, r3
    24f6:	2a02      	cmp	r2, #2
    24f8:	d002      	beq.n	2500 <_fflush+0x20>
    24fa:	2001      	movs	r0, #1
    24fc:	4240      	negs	r0, r0
    24fe:	bd70      	pop	{r4, r5, r6, pc}
    2500:	2280      	movs	r2, #128	; 0x80
    2502:	0018      	movs	r0, r3
    2504:	0252      	lsls	r2, r2, #9
    2506:	4010      	ands	r0, r2
    2508:	4213      	tst	r3, r2
    250a:	d0f8      	beq.n	24fe <_fflush+0x1e>
    250c:	42b1      	cmp	r1, r6
    250e:	d200      	bcs.n	2512 <_fflush+0x32>
    2510:	0031      	movs	r1, r6
    2512:	428d      	cmp	r5, r1
    2514:	d108      	bne.n	2528 <_fflush+0x48>
    2516:	2000      	movs	r0, #0
    2518:	68e2      	ldr	r2, [r4, #12]
    251a:	4b08      	ldr	r3, [pc, #32]	; (253c <_fflush+0x5c>)
    251c:	62e5      	str	r5, [r4, #44]	; 0x2c
    251e:	4013      	ands	r3, r2
    2520:	6025      	str	r5, [r4, #0]
    2522:	60a0      	str	r0, [r4, #8]
    2524:	60e3      	str	r3, [r4, #12]
    2526:	e7ea      	b.n	24fe <_fflush+0x1e>
    2528:	0022      	movs	r2, r4
    252a:	0028      	movs	r0, r5
    252c:	1b49      	subs	r1, r1, r5
    252e:	f000 f807 	bl	2540 <_Cwritebuf>
    2532:	2800      	cmp	r0, #0
    2534:	d0ef      	beq.n	2516 <_fflush+0x36>
    2536:	e7e0      	b.n	24fa <_fflush+0x1a>
    2538:	fff7ffff 	.word	0xfff7ffff
    253c:	fffeffff 	.word	0xfffeffff

00002540 <_Cwritebuf>:
    2540:	b5f7      	push	{r0, r1, r2, r4, r5, r6, r7, lr}
    2542:	68d5      	ldr	r5, [r2, #12]
    2544:	000f      	movs	r7, r1
    2546:	0014      	movs	r4, r2
    2548:	6956      	ldr	r6, [r2, #20]
    254a:	9001      	str	r0, [sp, #4]
    254c:	02eb      	lsls	r3, r5, #11
    254e:	d505      	bpl.n	255c <_Cwritebuf+0x1c>
    2550:	2310      	movs	r3, #16
    2552:	0030      	movs	r0, r6
    2554:	431d      	orrs	r5, r3
    2556:	f001 fe0e 	bl	4176 <__sys_flen>
    255a:	61a0      	str	r0, [r4, #24]
    255c:	4b10      	ldr	r3, [pc, #64]	; (25a0 <_Cwritebuf+0x60>)
    255e:	421d      	tst	r5, r3
    2560:	d00f      	beq.n	2582 <_Cwritebuf+0x42>
    2562:	0030      	movs	r0, r6
    2564:	69a1      	ldr	r1, [r4, #24]
    2566:	f001 fe0f 	bl	4188 <__sys_seek>
    256a:	2800      	cmp	r0, #0
    256c:	da06      	bge.n	257c <_Cwritebuf+0x3c>
    256e:	2380      	movs	r3, #128	; 0x80
    2570:	2001      	movs	r0, #1
    2572:	68e2      	ldr	r2, [r4, #12]
    2574:	4240      	negs	r0, r0
    2576:	4313      	orrs	r3, r2
    2578:	60e3      	str	r3, [r4, #12]
    257a:	e00f      	b.n	259c <_Cwritebuf+0x5c>
    257c:	4b09      	ldr	r3, [pc, #36]	; (25a4 <_Cwritebuf+0x64>)
    257e:	401d      	ands	r5, r3
    2580:	60e5      	str	r5, [r4, #12]
    2582:	9901      	ldr	r1, [sp, #4]
    2584:	003a      	movs	r2, r7
    2586:	0030      	movs	r0, r6
    2588:	f7fd ffbc 	bl	504 <__sys_write>
    258c:	0041      	lsls	r1, r0, #1
    258e:	69a3      	ldr	r3, [r4, #24]
    2590:	0849      	lsrs	r1, r1, #1
    2592:	1a79      	subs	r1, r7, r1
    2594:	1859      	adds	r1, r3, r1
    2596:	61a1      	str	r1, [r4, #24]
    2598:	2800      	cmp	r0, #0
    259a:	d1e8      	bne.n	256e <_Cwritebuf+0x2e>
    259c:	bdfe      	pop	{r1, r2, r3, r4, r5, r6, r7, pc}
    259e:	46c0      	nop			; (mov r8, r8)
    25a0:	00020010 	.word	0x00020010
    25a4:	fffdffef 	.word	0xfffdffef

000025a8 <malloc>:
    25a8:	b5f7      	push	{r0, r1, r2, r4, r5, r6, r7, lr}
    25aa:	2600      	movs	r6, #0
    25ac:	4f31      	ldr	r7, [pc, #196]	; (2674 <malloc+0xcc>)
    25ae:	1cc5      	adds	r5, r0, #3
    25b0:	0002      	movs	r2, r0
    25b2:	683c      	ldr	r4, [r7, #0]
    25b4:	08ad      	lsrs	r5, r5, #2
    25b6:	42b0      	cmp	r0, r6
    25b8:	d015      	beq.n	25e6 <malloc+0x3e>
    25ba:	0028      	movs	r0, r5
    25bc:	1ceb      	adds	r3, r5, #3
    25be:	469c      	mov	ip, r3
    25c0:	300a      	adds	r0, #10
    25c2:	9001      	str	r0, [sp, #4]
    25c4:	2c00      	cmp	r4, #0
    25c6:	d110      	bne.n	25ea <malloc+0x42>
    25c8:	320c      	adds	r2, #12
    25ca:	0010      	movs	r0, r2
    25cc:	f001 f8d0 	bl	3770 <_sbrk>
    25d0:	1c43      	adds	r3, r0, #1
    25d2:	d008      	beq.n	25e6 <malloc+0x3e>
    25d4:	2380      	movs	r3, #128	; 0x80
    25d6:	059b      	lsls	r3, r3, #22
    25d8:	6003      	str	r3, [r0, #0]
    25da:	6045      	str	r5, [r0, #4]
    25dc:	6084      	str	r4, [r0, #8]
    25de:	2e00      	cmp	r6, #0
    25e0:	d146      	bne.n	2670 <malloc+0xc8>
    25e2:	6038      	str	r0, [r7, #0]
    25e4:	e01e      	b.n	2624 <malloc+0x7c>
    25e6:	2000      	movs	r0, #0
    25e8:	bdfe      	pop	{r1, r2, r3, r4, r5, r6, r7, pc}
    25ea:	2180      	movs	r1, #128	; 0x80
    25ec:	6823      	ldr	r3, [r4, #0]
    25ee:	0549      	lsls	r1, r1, #21
    25f0:	428b      	cmp	r3, r1
    25f2:	d13a      	bne.n	266a <malloc+0xc2>
    25f4:	68a6      	ldr	r6, [r4, #8]
    25f6:	6863      	ldr	r3, [r4, #4]
    25f8:	2e00      	cmp	r6, #0
    25fa:	d00b      	beq.n	2614 <malloc+0x6c>
    25fc:	2080      	movs	r0, #128	; 0x80
    25fe:	6831      	ldr	r1, [r6, #0]
    2600:	0540      	lsls	r0, r0, #21
    2602:	4281      	cmp	r1, r0
    2604:	d106      	bne.n	2614 <malloc+0x6c>
    2606:	6871      	ldr	r1, [r6, #4]
    2608:	3303      	adds	r3, #3
    260a:	18cb      	adds	r3, r1, r3
    260c:	6063      	str	r3, [r4, #4]
    260e:	68b3      	ldr	r3, [r6, #8]
    2610:	60a3      	str	r3, [r4, #8]
    2612:	e7ef      	b.n	25f4 <malloc+0x4c>
    2614:	42ab      	cmp	r3, r5
    2616:	db07      	blt.n	2628 <malloc+0x80>
    2618:	459c      	cmp	ip, r3
    261a:	db05      	blt.n	2628 <malloc+0x80>
    261c:	2380      	movs	r3, #128	; 0x80
    261e:	059b      	lsls	r3, r3, #22
    2620:	6023      	str	r3, [r4, #0]
    2622:	0020      	movs	r0, r4
    2624:	300c      	adds	r0, #12
    2626:	e7df      	b.n	25e8 <malloc+0x40>
    2628:	9901      	ldr	r1, [sp, #4]
    262a:	428b      	cmp	r3, r1
    262c:	d910      	bls.n	2650 <malloc+0xa8>
    262e:	2280      	movs	r2, #128	; 0x80
    2630:	0020      	movs	r0, r4
    2632:	2180      	movs	r1, #128	; 0x80
    2634:	0592      	lsls	r2, r2, #22
    2636:	6022      	str	r2, [r4, #0]
    2638:	300c      	adds	r0, #12
    263a:	00aa      	lsls	r2, r5, #2
    263c:	1b5b      	subs	r3, r3, r5
    263e:	1882      	adds	r2, r0, r2
    2640:	0549      	lsls	r1, r1, #21
    2642:	3b03      	subs	r3, #3
    2644:	6065      	str	r5, [r4, #4]
    2646:	60a2      	str	r2, [r4, #8]
    2648:	6011      	str	r1, [r2, #0]
    264a:	6053      	str	r3, [r2, #4]
    264c:	6096      	str	r6, [r2, #8]
    264e:	e7cb      	b.n	25e8 <malloc+0x40>
    2650:	2e00      	cmp	r6, #0
    2652:	d10a      	bne.n	266a <malloc+0xc2>
    2654:	009b      	lsls	r3, r3, #2
    2656:	1ad0      	subs	r0, r2, r3
    2658:	f001 f88a 	bl	3770 <_sbrk>
    265c:	1c43      	adds	r3, r0, #1
    265e:	d0c2      	beq.n	25e6 <malloc+0x3e>
    2660:	2380      	movs	r3, #128	; 0x80
    2662:	059b      	lsls	r3, r3, #22
    2664:	6023      	str	r3, [r4, #0]
    2666:	6065      	str	r5, [r4, #4]
    2668:	e7db      	b.n	2622 <malloc+0x7a>
    266a:	0026      	movs	r6, r4
    266c:	68a4      	ldr	r4, [r4, #8]
    266e:	e7a9      	b.n	25c4 <malloc+0x1c>
    2670:	60b0      	str	r0, [r6, #8]
    2672:	e7d7      	b.n	2624 <malloc+0x7c>
    2674:	1ffff1fc 	.word	0x1ffff1fc

00002678 <_Csys_alloc>:
    2678:	b510      	push	{r4, lr}
    267a:	f7ff ff95 	bl	25a8 <malloc>
    267e:	1e04      	subs	r4, r0, #0
    2680:	d105      	bne.n	268e <_Csys_alloc+0x16>
    2682:	2217      	movs	r2, #23
    2684:	4903      	ldr	r1, [pc, #12]	; (2694 <_Csys_alloc+0x1c>)
    2686:	f7fd ff3d 	bl	504 <__sys_write>
    268a:	f001 fca9 	bl	3fe0 <__sys_appexit>
    268e:	0020      	movs	r0, r4
    2690:	bd10      	pop	{r4, pc}
    2692:	46c0      	nop			; (mov r8, r8)
    2694:	00004f51 	.word	0x00004f51

00002698 <fseek>:
    2698:	b5f7      	push	{r0, r1, r2, r4, r5, r6, r7, lr}
    269a:	4b3a      	ldr	r3, [pc, #232]	; (2784 <fseek+0xec>)
    269c:	68c6      	ldr	r6, [r0, #12]
    269e:	0004      	movs	r4, r0
    26a0:	000d      	movs	r5, r1
    26a2:	9200      	str	r2, [sp, #0]
    26a4:	421e      	tst	r6, r3
    26a6:	d102      	bne.n	26ae <fseek+0x16>
    26a8:	2702      	movs	r7, #2
    26aa:	0038      	movs	r0, r7
    26ac:	bdfe      	pop	{r1, r2, r3, r4, r5, r6, r7, pc}
    26ae:	6943      	ldr	r3, [r0, #20]
    26b0:	0018      	movs	r0, r3
    26b2:	9301      	str	r3, [sp, #4]
    26b4:	f001 fd62 	bl	417c <__sys_istty>
    26b8:	1e07      	subs	r7, r0, #0
    26ba:	d1f5      	bne.n	26a8 <fseek+0x10>
    26bc:	9b00      	ldr	r3, [sp, #0]
    26be:	2b01      	cmp	r3, #1
    26c0:	d005      	beq.n	26ce <fseek+0x36>
    26c2:	2b02      	cmp	r3, #2
    26c4:	d02d      	beq.n	2722 <fseek+0x8a>
    26c6:	2b00      	cmp	r3, #0
    26c8:	d005      	beq.n	26d6 <fseek+0x3e>
    26ca:	3702      	adds	r7, #2
    26cc:	e7ed      	b.n	26aa <fseek+0x12>
    26ce:	0020      	movs	r0, r4
    26d0:	f000 f85c 	bl	278c <ftell>
    26d4:	182d      	adds	r5, r5, r0
    26d6:	2d00      	cmp	r5, #0
    26d8:	dbe6      	blt.n	26a8 <fseek+0x10>
    26da:	04b3      	lsls	r3, r6, #18
    26dc:	d504      	bpl.n	26e8 <fseek+0x50>
    26de:	6823      	ldr	r3, [r4, #0]
    26e0:	6ae2      	ldr	r2, [r4, #44]	; 0x2c
    26e2:	429a      	cmp	r2, r3
    26e4:	d200      	bcs.n	26e8 <fseek+0x50>
    26e6:	62e3      	str	r3, [r4, #44]	; 0x2c
    26e8:	69a0      	ldr	r0, [r4, #24]
    26ea:	42a8      	cmp	r0, r5
    26ec:	dc0f      	bgt.n	270e <fseek+0x76>
    26ee:	6ae2      	ldr	r2, [r4, #44]	; 0x2c
    26f0:	6823      	ldr	r3, [r4, #0]
    26f2:	4293      	cmp	r3, r2
    26f4:	d200      	bcs.n	26f8 <fseek+0x60>
    26f6:	0013      	movs	r3, r2
    26f8:	6922      	ldr	r2, [r4, #16]
    26fa:	9200      	str	r2, [sp, #0]
    26fc:	9900      	ldr	r1, [sp, #0]
    26fe:	181a      	adds	r2, r3, r0
    2700:	1a52      	subs	r2, r2, r1
    2702:	42aa      	cmp	r2, r5
    2704:	db03      	blt.n	270e <fseek+0x76>
    2706:	6b22      	ldr	r2, [r4, #48]	; 0x30
    2708:	1881      	adds	r1, r0, r2
    270a:	42a9      	cmp	r1, r5
    270c:	dc28      	bgt.n	2760 <fseek+0xc8>
    270e:	2320      	movs	r3, #32
    2710:	431e      	orrs	r6, r3
    2712:	2300      	movs	r3, #0
    2714:	62a5      	str	r5, [r4, #40]	; 0x28
    2716:	60a3      	str	r3, [r4, #8]
    2718:	6063      	str	r3, [r4, #4]
    271a:	4b1b      	ldr	r3, [pc, #108]	; (2788 <fseek+0xf0>)
    271c:	401e      	ands	r6, r3
    271e:	60e6      	str	r6, [r4, #12]
    2720:	e7c3      	b.n	26aa <fseek+0x12>
    2722:	9801      	ldr	r0, [sp, #4]
    2724:	f001 fd27 	bl	4176 <__sys_flen>
    2728:	68e2      	ldr	r2, [r4, #12]
    272a:	2800      	cmp	r0, #0
    272c:	da04      	bge.n	2738 <fseek+0xa0>
    272e:	2380      	movs	r3, #128	; 0x80
    2730:	4313      	orrs	r3, r2
    2732:	2701      	movs	r7, #1
    2734:	60e3      	str	r3, [r4, #12]
    2736:	e7b8      	b.n	26aa <fseek+0x12>
    2738:	6ae1      	ldr	r1, [r4, #44]	; 0x2c
    273a:	6823      	ldr	r3, [r4, #0]
    273c:	4299      	cmp	r1, r3
    273e:	d900      	bls.n	2742 <fseek+0xaa>
    2740:	000b      	movs	r3, r1
    2742:	69a1      	ldr	r1, [r4, #24]
    2744:	185b      	adds	r3, r3, r1
    2746:	6921      	ldr	r1, [r4, #16]
    2748:	1a5b      	subs	r3, r3, r1
    274a:	0692      	lsls	r2, r2, #26
    274c:	d503      	bpl.n	2756 <fseek+0xbe>
    274e:	6aa2      	ldr	r2, [r4, #40]	; 0x28
    2750:	4293      	cmp	r3, r2
    2752:	da00      	bge.n	2756 <fseek+0xbe>
    2754:	0013      	movs	r3, r2
    2756:	4283      	cmp	r3, r0
    2758:	da00      	bge.n	275c <fseek+0xc4>
    275a:	0003      	movs	r3, r0
    275c:	18ed      	adds	r5, r5, r3
    275e:	e7ba      	b.n	26d6 <fseek+0x3e>
    2760:	1a2d      	subs	r5, r5, r0
    2762:	07b1      	lsls	r1, r6, #30
    2764:	d501      	bpl.n	276a <fseek+0xd2>
    2766:	1aaa      	subs	r2, r5, r2
    2768:	60a2      	str	r2, [r4, #8]
    276a:	07f2      	lsls	r2, r6, #31
    276c:	d503      	bpl.n	2776 <fseek+0xde>
    276e:	9a00      	ldr	r2, [sp, #0]
    2770:	1a9b      	subs	r3, r3, r2
    2772:	1aeb      	subs	r3, r5, r3
    2774:	6063      	str	r3, [r4, #4]
    2776:	9b00      	ldr	r3, [sp, #0]
    2778:	195d      	adds	r5, r3, r5
    277a:	2320      	movs	r3, #32
    277c:	6025      	str	r5, [r4, #0]
    277e:	439e      	bics	r6, r3
    2780:	e7cb      	b.n	271a <fseek+0x82>
    2782:	46c0      	nop			; (mov r8, r8)
    2784:	00100003 	.word	0x00100003
    2788:	fff7cfbf 	.word	0xfff7cfbf

0000278c <ftell>:
    278c:	68c2      	ldr	r2, [r0, #12]
    278e:	0793      	lsls	r3, r2, #30
    2790:	d105      	bne.n	279e <ftell+0x12>
    2792:	2221      	movs	r2, #33	; 0x21
    2794:	2001      	movs	r0, #1
    2796:	4b0e      	ldr	r3, [pc, #56]	; (27d0 <ftell+0x44>)
    2798:	4240      	negs	r0, r0
    279a:	601a      	str	r2, [r3, #0]
    279c:	4770      	bx	lr
    279e:	2320      	movs	r3, #32
    27a0:	4013      	ands	r3, r2
    27a2:	0312      	lsls	r2, r2, #12
    27a4:	d50a      	bpl.n	27bc <ftell+0x30>
    27a6:	2b00      	cmp	r3, #0
    27a8:	d002      	beq.n	27b0 <ftell+0x24>
    27aa:	6a80      	ldr	r0, [r0, #40]	; 0x28
    27ac:	3801      	subs	r0, #1
    27ae:	e7f5      	b.n	279c <ftell+0x10>
    27b0:	6803      	ldr	r3, [r0, #0]
    27b2:	6982      	ldr	r2, [r0, #24]
    27b4:	6900      	ldr	r0, [r0, #16]
    27b6:	189b      	adds	r3, r3, r2
    27b8:	1a18      	subs	r0, r3, r0
    27ba:	e7f7      	b.n	27ac <ftell+0x20>
    27bc:	2b00      	cmp	r3, #0
    27be:	d001      	beq.n	27c4 <ftell+0x38>
    27c0:	6a80      	ldr	r0, [r0, #40]	; 0x28
    27c2:	e7eb      	b.n	279c <ftell+0x10>
    27c4:	6803      	ldr	r3, [r0, #0]
    27c6:	6982      	ldr	r2, [r0, #24]
    27c8:	6900      	ldr	r0, [r0, #16]
    27ca:	189b      	adds	r3, r3, r2
    27cc:	1a18      	subs	r0, r3, r0
    27ce:	e7e5      	b.n	279c <ftell+0x10>
    27d0:	1ffff200 	.word	0x1ffff200

000027d4 <_initio>:
    27d4:	b537      	push	{r0, r1, r2, r4, r5, lr}
    27d6:	4c18      	ldr	r4, [pc, #96]	; (2838 <_initio+0x64>)
    27d8:	4918      	ldr	r1, [pc, #96]	; (283c <_initio+0x68>)
    27da:	0022      	movs	r2, r4
    27dc:	2000      	movs	r0, #0
    27de:	f000 ffe9 	bl	37b4 <_fdopen>
    27e2:	2380      	movs	r3, #128	; 0x80
    27e4:	2280      	movs	r2, #128	; 0x80
    27e6:	005b      	lsls	r3, r3, #1
    27e8:	2100      	movs	r1, #0
    27ea:	0020      	movs	r0, r4
    27ec:	00d2      	lsls	r2, r2, #3
    27ee:	f000 ff57 	bl	36a0 <setvbuf>
    27f2:	4c13      	ldr	r4, [pc, #76]	; (2840 <_initio+0x6c>)
    27f4:	4d13      	ldr	r5, [pc, #76]	; (2844 <_initio+0x70>)
    27f6:	0022      	movs	r2, r4
    27f8:	0029      	movs	r1, r5
    27fa:	2001      	movs	r0, #1
    27fc:	f000 ffda 	bl	37b4 <_fdopen>
    2800:	2380      	movs	r3, #128	; 0x80
    2802:	2280      	movs	r2, #128	; 0x80
    2804:	005b      	lsls	r3, r3, #1
    2806:	2100      	movs	r1, #0
    2808:	0020      	movs	r0, r4
    280a:	00d2      	lsls	r2, r2, #3
    280c:	f000 ff48 	bl	36a0 <setvbuf>
    2810:	4b0d      	ldr	r3, [pc, #52]	; (2848 <_initio+0x74>)
    2812:	681b      	ldr	r3, [r3, #0]
    2814:	9301      	str	r3, [sp, #4]
    2816:	2b02      	cmp	r3, #2
    2818:	dd0d      	ble.n	2836 <_initio+0x62>
    281a:	4c0c      	ldr	r4, [pc, #48]	; (284c <_initio+0x78>)
    281c:	0029      	movs	r1, r5
    281e:	0022      	movs	r2, r4
    2820:	2002      	movs	r0, #2
    2822:	f000 ffc7 	bl	37b4 <_fdopen>
    2826:	2380      	movs	r3, #128	; 0x80
    2828:	2280      	movs	r2, #128	; 0x80
    282a:	2100      	movs	r1, #0
    282c:	0020      	movs	r0, r4
    282e:	005b      	lsls	r3, r3, #1
    2830:	00d2      	lsls	r2, r2, #3
    2832:	f000 ff35 	bl	36a0 <setvbuf>
    2836:	bd37      	pop	{r0, r1, r2, r4, r5, pc}
    2838:	1ffff0bc 	.word	0x1ffff0bc
    283c:	00004f69 	.word	0x00004f69
    2840:	1ffff0f8 	.word	0x1ffff0f8
    2844:	00004f6b 	.word	0x00004f6b
    2848:	00004f38 	.word	0x00004f38
    284c:	1ffff134 	.word	0x1ffff134

00002850 <_terminateio>:
    2850:	b5f8      	push	{r3, r4, r5, r6, r7, lr}
    2852:	2780      	movs	r7, #128	; 0x80
    2854:	2503      	movs	r5, #3
    2856:	4b0d      	ldr	r3, [pc, #52]	; (288c <_terminateio+0x3c>)
    2858:	4c0d      	ldr	r4, [pc, #52]	; (2890 <_terminateio+0x40>)
    285a:	681e      	ldr	r6, [r3, #0]
    285c:	03bf      	lsls	r7, r7, #14
    285e:	42ae      	cmp	r6, r5
    2860:	dc0b      	bgt.n	287a <_terminateio+0x2a>
    2862:	480c      	ldr	r0, [pc, #48]	; (2894 <_terminateio+0x44>)
    2864:	f000 ffe0 	bl	3828 <fclose>
    2868:	480b      	ldr	r0, [pc, #44]	; (2898 <_terminateio+0x48>)
    286a:	f000 ffdd 	bl	3828 <fclose>
    286e:	2e02      	cmp	r6, #2
    2870:	dd02      	ble.n	2878 <_terminateio+0x28>
    2872:	480a      	ldr	r0, [pc, #40]	; (289c <_terminateio+0x4c>)
    2874:	f000 ffd8 	bl	3828 <fclose>
    2878:	bdf8      	pop	{r3, r4, r5, r6, r7, pc}
    287a:	68e3      	ldr	r3, [r4, #12]
    287c:	423b      	tst	r3, r7
    287e:	d002      	beq.n	2886 <_terminateio+0x36>
    2880:	0020      	movs	r0, r4
    2882:	f000 ffd1 	bl	3828 <fclose>
    2886:	3501      	adds	r5, #1
    2888:	343c      	adds	r4, #60	; 0x3c
    288a:	e7e8      	b.n	285e <_terminateio+0xe>
    288c:	00004f38 	.word	0x00004f38
    2890:	1ffff170 	.word	0x1ffff170
    2894:	1ffff0bc 	.word	0x1ffff0bc
    2898:	1ffff0f8 	.word	0x1ffff0f8
    289c:	1ffff134 	.word	0x1ffff134

000028a0 <__vfprintf>:
    28a0:	b5f0      	push	{r4, r5, r6, r7, lr}
    28a2:	b0cf      	sub	sp, #316	; 0x13c
    28a4:	920a      	str	r2, [sp, #40]	; 0x28
    28a6:	9a55      	ldr	r2, [sp, #340]	; 0x154
    28a8:	0004      	movs	r4, r0
    28aa:	9208      	str	r2, [sp, #32]
    28ac:	2200      	movs	r2, #0
    28ae:	930b      	str	r3, [sp, #44]	; 0x2c
    28b0:	9b54      	ldr	r3, [sp, #336]	; 0x150
    28b2:	9206      	str	r2, [sp, #24]
    28b4:	7818      	ldrb	r0, [r3, #0]
    28b6:	1c5a      	adds	r2, r3, #1
    28b8:	9207      	str	r2, [sp, #28]
    28ba:	2800      	cmp	r0, #0
    28bc:	d102      	bne.n	28c4 <__vfprintf+0x24>
    28be:	9806      	ldr	r0, [sp, #24]
    28c0:	b04f      	add	sp, #316	; 0x13c
    28c2:	bdf0      	pop	{r4, r5, r6, r7, pc}
    28c4:	2825      	cmp	r0, #37	; 0x25
    28c6:	d139      	bne.n	293c <__vfprintf+0x9c>
    28c8:	2204      	movs	r2, #4
    28ca:	2180      	movs	r1, #128	; 0x80
    28cc:	2500      	movs	r5, #0
    28ce:	2702      	movs	r7, #2
    28d0:	4694      	mov	ip, r2
    28d2:	9b07      	ldr	r3, [sp, #28]
    28d4:	3824      	subs	r0, #36	; 0x24
    28d6:	0089      	lsls	r1, r1, #2
    28d8:	001a      	movs	r2, r3
    28da:	7816      	ldrb	r6, [r2, #0]
    28dc:	3301      	adds	r3, #1
    28de:	2e2b      	cmp	r6, #43	; 0x2b
    28e0:	d05a      	beq.n	2998 <__vfprintf+0xf8>
    28e2:	d846      	bhi.n	2972 <__vfprintf+0xd2>
    28e4:	2e20      	cmp	r6, #32
    28e6:	d059      	beq.n	299c <__vfprintf+0xfc>
    28e8:	2e23      	cmp	r6, #35	; 0x23
    28ea:	d05a      	beq.n	29a2 <__vfprintf+0x102>
    28ec:	2e2a      	cmp	r6, #42	; 0x2a
    28ee:	d144      	bne.n	297a <__vfprintf+0xda>
    28f0:	9908      	ldr	r1, [sp, #32]
    28f2:	c980      	ldmia	r1!, {r7}
    28f4:	2f00      	cmp	r7, #0
    28f6:	da02      	bge.n	28fe <__vfprintf+0x5e>
    28f8:	2001      	movs	r0, #1
    28fa:	427f      	negs	r7, r7
    28fc:	4045      	eors	r5, r0
    28fe:	3202      	adds	r2, #2
    2900:	781e      	ldrb	r6, [r3, #0]
    2902:	9207      	str	r2, [sp, #28]
    2904:	9108      	str	r1, [sp, #32]
    2906:	43f8      	mvns	r0, r7
    2908:	2300      	movs	r3, #0
    290a:	17c0      	asrs	r0, r0, #31
    290c:	4038      	ands	r0, r7
    290e:	9014      	str	r0, [sp, #80]	; 0x50
    2910:	930c      	str	r3, [sp, #48]	; 0x30
    2912:	2e2e      	cmp	r6, #46	; 0x2e
    2914:	d157      	bne.n	29c6 <__vfprintf+0x126>
    2916:	9b07      	ldr	r3, [sp, #28]
    2918:	781e      	ldrb	r6, [r3, #0]
    291a:	2e2a      	cmp	r6, #42	; 0x2a
    291c:	d045      	beq.n	29aa <__vfprintf+0x10a>
    291e:	210a      	movs	r1, #10
    2920:	3301      	adds	r3, #1
    2922:	0032      	movs	r2, r6
    2924:	3a30      	subs	r2, #48	; 0x30
    2926:	b2d0      	uxtb	r0, r2
    2928:	9307      	str	r3, [sp, #28]
    292a:	2809      	cmp	r0, #9
    292c:	d846      	bhi.n	29bc <__vfprintf+0x11c>
    292e:	980c      	ldr	r0, [sp, #48]	; 0x30
    2930:	781e      	ldrb	r6, [r3, #0]
    2932:	4348      	muls	r0, r1
    2934:	1812      	adds	r2, r2, r0
    2936:	920c      	str	r2, [sp, #48]	; 0x30
    2938:	3301      	adds	r3, #1
    293a:	e7f2      	b.n	2922 <__vfprintf+0x82>
    293c:	9b06      	ldr	r3, [sp, #24]
    293e:	9a0b      	ldr	r2, [sp, #44]	; 0x2c
    2940:	1c5d      	adds	r5, r3, #1
    2942:	17db      	asrs	r3, r3, #31
    2944:	429a      	cmp	r2, r3
    2946:	dc04      	bgt.n	2952 <__vfprintf+0xb2>
    2948:	d10c      	bne.n	2964 <__vfprintf+0xc4>
    294a:	9b0a      	ldr	r3, [sp, #40]	; 0x28
    294c:	9a06      	ldr	r2, [sp, #24]
    294e:	4293      	cmp	r3, r2
    2950:	d908      	bls.n	2964 <__vfprintf+0xc4>
    2952:	68a3      	ldr	r3, [r4, #8]
    2954:	3b01      	subs	r3, #1
    2956:	60a3      	str	r3, [r4, #8]
    2958:	2b00      	cmp	r3, #0
    295a:	db06      	blt.n	296a <__vfprintf+0xca>
    295c:	6823      	ldr	r3, [r4, #0]
    295e:	1c5a      	adds	r2, r3, #1
    2960:	6022      	str	r2, [r4, #0]
    2962:	7018      	strb	r0, [r3, #0]
    2964:	9b07      	ldr	r3, [sp, #28]
    2966:	9506      	str	r5, [sp, #24]
    2968:	e7a4      	b.n	28b4 <__vfprintf+0x14>
    296a:	0021      	movs	r1, r4
    296c:	f7ff fd10 	bl	2390 <__flsbuf>
    2970:	e7f8      	b.n	2964 <__vfprintf+0xc4>
    2972:	2e2d      	cmp	r6, #45	; 0x2d
    2974:	d00e      	beq.n	2994 <__vfprintf+0xf4>
    2976:	2e30      	cmp	r6, #48	; 0x30
    2978:	d015      	beq.n	29a6 <__vfprintf+0x106>
    297a:	2700      	movs	r7, #0
    297c:	200a      	movs	r0, #10
    297e:	0032      	movs	r2, r6
    2980:	3a30      	subs	r2, #48	; 0x30
    2982:	b2d1      	uxtb	r1, r2
    2984:	9307      	str	r3, [sp, #28]
    2986:	2909      	cmp	r1, #9
    2988:	d8bd      	bhi.n	2906 <__vfprintf+0x66>
    298a:	4347      	muls	r7, r0
    298c:	781e      	ldrb	r6, [r3, #0]
    298e:	19d7      	adds	r7, r2, r7
    2990:	3301      	adds	r3, #1
    2992:	e7f4      	b.n	297e <__vfprintf+0xde>
    2994:	4305      	orrs	r5, r0
    2996:	e79f      	b.n	28d8 <__vfprintf+0x38>
    2998:	433d      	orrs	r5, r7
    299a:	e79d      	b.n	28d8 <__vfprintf+0x38>
    299c:	4662      	mov	r2, ip
    299e:	4315      	orrs	r5, r2
    29a0:	e79a      	b.n	28d8 <__vfprintf+0x38>
    29a2:	2208      	movs	r2, #8
    29a4:	e7fb      	b.n	299e <__vfprintf+0xfe>
    29a6:	430d      	orrs	r5, r1
    29a8:	e796      	b.n	28d8 <__vfprintf+0x38>
    29aa:	9b08      	ldr	r3, [sp, #32]
    29ac:	cb04      	ldmia	r3!, {r2}
    29ae:	920c      	str	r2, [sp, #48]	; 0x30
    29b0:	9a07      	ldr	r2, [sp, #28]
    29b2:	9308      	str	r3, [sp, #32]
    29b4:	0013      	movs	r3, r2
    29b6:	7856      	ldrb	r6, [r2, #1]
    29b8:	3302      	adds	r3, #2
    29ba:	9307      	str	r3, [sp, #28]
    29bc:	9b0c      	ldr	r3, [sp, #48]	; 0x30
    29be:	2b00      	cmp	r3, #0
    29c0:	db18      	blt.n	29f4 <__vfprintf+0x154>
    29c2:	2310      	movs	r3, #16
    29c4:	431d      	orrs	r5, r3
    29c6:	2e6c      	cmp	r6, #108	; 0x6c
    29c8:	d109      	bne.n	29de <__vfprintf+0x13e>
    29ca:	9b07      	ldr	r3, [sp, #28]
    29cc:	781e      	ldrb	r6, [r3, #0]
    29ce:	2e6c      	cmp	r6, #108	; 0x6c
    29d0:	d113      	bne.n	29fa <__vfprintf+0x15a>
    29d2:	785e      	ldrb	r6, [r3, #1]
    29d4:	2360      	movs	r3, #96	; 0x60
    29d6:	431d      	orrs	r5, r3
    29d8:	9b07      	ldr	r3, [sp, #28]
    29da:	3302      	adds	r3, #2
    29dc:	9307      	str	r3, [sp, #28]
    29de:	2e4c      	cmp	r6, #76	; 0x4c
    29e0:	d001      	beq.n	29e6 <__vfprintf+0x146>
    29e2:	2e71      	cmp	r6, #113	; 0x71
    29e4:	d10f      	bne.n	2a06 <__vfprintf+0x166>
    29e6:	9b07      	ldr	r3, [sp, #28]
    29e8:	781e      	ldrb	r6, [r3, #0]
    29ea:	2360      	movs	r3, #96	; 0x60
    29ec:	431d      	orrs	r5, r3
    29ee:	9b07      	ldr	r3, [sp, #28]
    29f0:	3301      	adds	r3, #1
    29f2:	e014      	b.n	2a1e <__vfprintf+0x17e>
    29f4:	2300      	movs	r3, #0
    29f6:	930c      	str	r3, [sp, #48]	; 0x30
    29f8:	e7e5      	b.n	29c6 <__vfprintf+0x126>
    29fa:	9b07      	ldr	r3, [sp, #28]
    29fc:	3301      	adds	r3, #1
    29fe:	9307      	str	r3, [sp, #28]
    2a00:	2320      	movs	r3, #32
    2a02:	431d      	orrs	r5, r3
    2a04:	e7eb      	b.n	29de <__vfprintf+0x13e>
    2a06:	2e68      	cmp	r6, #104	; 0x68
    2a08:	d170      	bne.n	2aec <__vfprintf+0x24c>
    2a0a:	9b07      	ldr	r3, [sp, #28]
    2a0c:	781e      	ldrb	r6, [r3, #0]
    2a0e:	2e68      	cmp	r6, #104	; 0x68
    2a10:	d107      	bne.n	2a22 <__vfprintf+0x182>
    2a12:	2380      	movs	r3, #128	; 0x80
    2a14:	005b      	lsls	r3, r3, #1
    2a16:	431d      	orrs	r5, r3
    2a18:	9b07      	ldr	r3, [sp, #28]
    2a1a:	785e      	ldrb	r6, [r3, #1]
    2a1c:	3302      	adds	r3, #2
    2a1e:	9307      	str	r3, [sp, #28]
    2a20:	e004      	b.n	2a2c <__vfprintf+0x18c>
    2a22:	9b07      	ldr	r3, [sp, #28]
    2a24:	3301      	adds	r3, #1
    2a26:	9307      	str	r3, [sp, #28]
    2a28:	2380      	movs	r3, #128	; 0x80
    2a2a:	431d      	orrs	r5, r3
    2a2c:	2e78      	cmp	r6, #120	; 0x78
    2a2e:	dc09      	bgt.n	2a44 <__vfprintf+0x1a4>
    2a30:	2e57      	cmp	r6, #87	; 0x57
    2a32:	dc67      	bgt.n	2b04 <__vfprintf+0x264>
    2a34:	2e41      	cmp	r6, #65	; 0x41
    2a36:	d100      	bne.n	2a3a <__vfprintf+0x19a>
    2a38:	e2fb      	b.n	3032 <__vfprintf+0x792>
    2a3a:	dd00      	ble.n	2a3e <__vfprintf+0x19e>
    2a3c:	e089      	b.n	2b52 <__vfprintf+0x2b2>
    2a3e:	2e00      	cmp	r6, #0
    2a40:	d100      	bne.n	2a44 <__vfprintf+0x1a4>
    2a42:	e0ed      	b.n	2c20 <__vfprintf+0x380>
    2a44:	9b14      	ldr	r3, [sp, #80]	; 0x50
    2a46:	2201      	movs	r2, #1
    2a48:	3b01      	subs	r3, #1
    2a4a:	930c      	str	r3, [sp, #48]	; 0x30
    2a4c:	002b      	movs	r3, r5
    2a4e:	4013      	ands	r3, r2
    2a50:	9339      	str	r3, [sp, #228]	; 0xe4
    2a52:	9b06      	ldr	r3, [sp, #24]
    2a54:	4215      	tst	r5, r2
    2a56:	d11e      	bne.n	2a96 <__vfprintf+0x1f6>
    2a58:	2330      	movs	r3, #48	; 0x30
    2a5a:	9338      	str	r3, [sp, #224]	; 0xe0
    2a5c:	05ab      	lsls	r3, r5, #22
    2a5e:	d401      	bmi.n	2a64 <__vfprintf+0x1c4>
    2a60:	2320      	movs	r3, #32
    2a62:	9338      	str	r3, [sp, #224]	; 0xe0
    2a64:	9b06      	ldr	r3, [sp, #24]
    2a66:	9324      	str	r3, [sp, #144]	; 0x90
    2a68:	17db      	asrs	r3, r3, #31
    2a6a:	9325      	str	r3, [sp, #148]	; 0x94
    2a6c:	9b0c      	ldr	r3, [sp, #48]	; 0x30
    2a6e:	3b01      	subs	r3, #1
    2a70:	930c      	str	r3, [sp, #48]	; 0x30
    2a72:	d400      	bmi.n	2a76 <__vfprintf+0x1d6>
    2a74:	e08d      	b.n	2b92 <__vfprintf+0x2f2>
    2a76:	9b14      	ldr	r3, [sp, #80]	; 0x50
    2a78:	1e59      	subs	r1, r3, #1
    2a7a:	2300      	movs	r3, #0
    2a7c:	429f      	cmp	r7, r3
    2a7e:	dd00      	ble.n	2a82 <__vfprintf+0x1e2>
    2a80:	000b      	movs	r3, r1
    2a82:	9a06      	ldr	r2, [sp, #24]
    2a84:	9814      	ldr	r0, [sp, #80]	; 0x50
    2a86:	189b      	adds	r3, r3, r2
    2a88:	2200      	movs	r2, #0
    2a8a:	3802      	subs	r0, #2
    2a8c:	4297      	cmp	r7, r2
    2a8e:	dd00      	ble.n	2a92 <__vfprintf+0x1f2>
    2a90:	424a      	negs	r2, r1
    2a92:	1812      	adds	r2, r2, r0
    2a94:	920c      	str	r2, [sp, #48]	; 0x30
    2a96:	990b      	ldr	r1, [sp, #44]	; 0x2c
    2a98:	1c5a      	adds	r2, r3, #1
    2a9a:	9206      	str	r2, [sp, #24]
    2a9c:	17da      	asrs	r2, r3, #31
    2a9e:	4291      	cmp	r1, r2
    2aa0:	dc03      	bgt.n	2aaa <__vfprintf+0x20a>
    2aa2:	d10c      	bne.n	2abe <__vfprintf+0x21e>
    2aa4:	9a0a      	ldr	r2, [sp, #40]	; 0x28
    2aa6:	429a      	cmp	r2, r3
    2aa8:	d909      	bls.n	2abe <__vfprintf+0x21e>
    2aaa:	68a3      	ldr	r3, [r4, #8]
    2aac:	3b01      	subs	r3, #1
    2aae:	60a3      	str	r3, [r4, #8]
    2ab0:	2b00      	cmp	r3, #0
    2ab2:	da00      	bge.n	2ab6 <__vfprintf+0x216>
    2ab4:	e08e      	b.n	2bd4 <__vfprintf+0x334>
    2ab6:	6823      	ldr	r3, [r4, #0]
    2ab8:	1c5a      	adds	r2, r3, #1
    2aba:	6022      	str	r2, [r4, #0]
    2abc:	701e      	strb	r6, [r3, #0]
    2abe:	9b39      	ldr	r3, [sp, #228]	; 0xe4
    2ac0:	9f08      	ldr	r7, [sp, #32]
    2ac2:	2b00      	cmp	r3, #0
    2ac4:	d00f      	beq.n	2ae6 <__vfprintf+0x246>
    2ac6:	9b06      	ldr	r3, [sp, #24]
    2ac8:	9d0c      	ldr	r5, [sp, #48]	; 0x30
    2aca:	9322      	str	r3, [sp, #136]	; 0x88
    2acc:	17db      	asrs	r3, r3, #31
    2ace:	9323      	str	r3, [sp, #140]	; 0x8c
    2ad0:	3d01      	subs	r5, #1
    2ad2:	d400      	bmi.n	2ad6 <__vfprintf+0x236>
    2ad4:	e083      	b.n	2bde <__vfprintf+0x33e>
    2ad6:	9b0c      	ldr	r3, [sp, #48]	; 0x30
    2ad8:	43d8      	mvns	r0, r3
    2ada:	17c0      	asrs	r0, r0, #31
    2adc:	4018      	ands	r0, r3
    2ade:	9b06      	ldr	r3, [sp, #24]
    2ae0:	181b      	adds	r3, r3, r0
    2ae2:	9306      	str	r3, [sp, #24]
    2ae4:	9f08      	ldr	r7, [sp, #32]
    2ae6:	9d06      	ldr	r5, [sp, #24]
    2ae8:	9708      	str	r7, [sp, #32]
    2aea:	e73b      	b.n	2964 <__vfprintf+0xc4>
    2aec:	2e6a      	cmp	r6, #106	; 0x6a
    2aee:	d104      	bne.n	2afa <__vfprintf+0x25a>
    2af0:	2340      	movs	r3, #64	; 0x40
    2af2:	431d      	orrs	r5, r3
    2af4:	9b07      	ldr	r3, [sp, #28]
    2af6:	781e      	ldrb	r6, [r3, #0]
    2af8:	e77a      	b.n	29f0 <__vfprintf+0x150>
    2afa:	2e7a      	cmp	r6, #122	; 0x7a
    2afc:	d0fa      	beq.n	2af4 <__vfprintf+0x254>
    2afe:	2e74      	cmp	r6, #116	; 0x74
    2b00:	d194      	bne.n	2a2c <__vfprintf+0x18c>
    2b02:	e7f7      	b.n	2af4 <__vfprintf+0x254>
    2b04:	0030      	movs	r0, r6
    2b06:	3858      	subs	r0, #88	; 0x58
    2b08:	2820      	cmp	r0, #32
    2b0a:	d89b      	bhi.n	2a44 <__vfprintf+0x1a4>
    2b0c:	f001 fb28 	bl	4160 <__gnu_thumb1_case_shi>
    2b10:	ff9a0165 	.word	0xff9a0165
    2b14:	ff9aff9a 	.word	0xff9aff9a
    2b18:	ff9aff9a 	.word	0xff9aff9a
    2b1c:	ff9aff9a 	.word	0xff9aff9a
    2b20:	0291ff9a 	.word	0x0291ff9a
    2b24:	003dff9a 	.word	0x003dff9a
    2b28:	00270257 	.word	0x00270257
    2b2c:	00270027 	.word	0x00270027
    2b30:	0257ff9a 	.word	0x0257ff9a
    2b34:	ff9aff9a 	.word	0xff9aff9a
    2b38:	ff9aff9a 	.word	0xff9aff9a
    2b3c:	01f2008c 	.word	0x01f2008c
    2b40:	ff9a01e8 	.word	0xff9a01e8
    2b44:	00acff9a 	.word	0x00acff9a
    2b48:	021aff9a 	.word	0x021aff9a
    2b4c:	ff9aff9a 	.word	0xff9aff9a
    2b50:	01bf      	.short	0x01bf
    2b52:	2302      	movs	r3, #2
    2b54:	0032      	movs	r2, r6
    2b56:	439a      	bics	r2, r3
    2b58:	2a45      	cmp	r2, #69	; 0x45
    2b5a:	d000      	beq.n	2b5e <__vfprintf+0x2be>
    2b5c:	e772      	b.n	2a44 <__vfprintf+0x1a4>
    2b5e:	2380      	movs	r3, #128	; 0x80
    2b60:	00db      	lsls	r3, r3, #3
    2b62:	432b      	orrs	r3, r5
    2b64:	06ea      	lsls	r2, r5, #27
    2b66:	d401      	bmi.n	2b6c <__vfprintf+0x2cc>
    2b68:	2206      	movs	r2, #6
    2b6a:	920c      	str	r2, [sp, #48]	; 0x30
    2b6c:	001d      	movs	r5, r3
    2b6e:	2200      	movs	r2, #0
    2b70:	2300      	movs	r3, #0
    2b72:	2107      	movs	r1, #7
    2b74:	9204      	str	r2, [sp, #16]
    2b76:	9305      	str	r3, [sp, #20]
    2b78:	2300      	movs	r3, #0
    2b7a:	9f08      	ldr	r7, [sp, #32]
    2b7c:	9338      	str	r3, [sp, #224]	; 0xe0
    2b7e:	3707      	adds	r7, #7
    2b80:	438f      	bics	r7, r1
    2b82:	cf03      	ldmia	r7!, {r0, r1}
    2b84:	9044      	str	r0, [sp, #272]	; 0x110
    2b86:	9145      	str	r1, [sp, #276]	; 0x114
    2b88:	e1b2      	b.n	2ef0 <__vfprintf+0x650>
    2b8a:	9b08      	ldr	r3, [sp, #32]
    2b8c:	cb40      	ldmia	r3!, {r6}
    2b8e:	9308      	str	r3, [sp, #32]
    2b90:	e758      	b.n	2a44 <__vfprintf+0x1a4>
    2b92:	9b0b      	ldr	r3, [sp, #44]	; 0x2c
    2b94:	9a25      	ldr	r2, [sp, #148]	; 0x94
    2b96:	4293      	cmp	r3, r2
    2b98:	dc04      	bgt.n	2ba4 <__vfprintf+0x304>
    2b9a:	d10d      	bne.n	2bb8 <__vfprintf+0x318>
    2b9c:	9b0a      	ldr	r3, [sp, #40]	; 0x28
    2b9e:	9a24      	ldr	r2, [sp, #144]	; 0x90
    2ba0:	4293      	cmp	r3, r2
    2ba2:	d909      	bls.n	2bb8 <__vfprintf+0x318>
    2ba4:	68a3      	ldr	r3, [r4, #8]
    2ba6:	3b01      	subs	r3, #1
    2ba8:	60a3      	str	r3, [r4, #8]
    2baa:	2b00      	cmp	r3, #0
    2bac:	db0d      	blt.n	2bca <__vfprintf+0x32a>
    2bae:	6823      	ldr	r3, [r4, #0]
    2bb0:	1c5a      	adds	r2, r3, #1
    2bb2:	6022      	str	r2, [r4, #0]
    2bb4:	9a38      	ldr	r2, [sp, #224]	; 0xe0
    2bb6:	701a      	strb	r2, [r3, #0]
    2bb8:	2001      	movs	r0, #1
    2bba:	9a24      	ldr	r2, [sp, #144]	; 0x90
    2bbc:	9b25      	ldr	r3, [sp, #148]	; 0x94
    2bbe:	2100      	movs	r1, #0
    2bc0:	1812      	adds	r2, r2, r0
    2bc2:	414b      	adcs	r3, r1
    2bc4:	9224      	str	r2, [sp, #144]	; 0x90
    2bc6:	9325      	str	r3, [sp, #148]	; 0x94
    2bc8:	e750      	b.n	2a6c <__vfprintf+0x1cc>
    2bca:	0021      	movs	r1, r4
    2bcc:	9838      	ldr	r0, [sp, #224]	; 0xe0
    2bce:	f7ff fbdf 	bl	2390 <__flsbuf>
    2bd2:	e7f1      	b.n	2bb8 <__vfprintf+0x318>
    2bd4:	0021      	movs	r1, r4
    2bd6:	0030      	movs	r0, r6
    2bd8:	f7ff fbda 	bl	2390 <__flsbuf>
    2bdc:	e76f      	b.n	2abe <__vfprintf+0x21e>
    2bde:	9b0b      	ldr	r3, [sp, #44]	; 0x2c
    2be0:	9a23      	ldr	r2, [sp, #140]	; 0x8c
    2be2:	4293      	cmp	r3, r2
    2be4:	dc04      	bgt.n	2bf0 <__vfprintf+0x350>
    2be6:	d10d      	bne.n	2c04 <__vfprintf+0x364>
    2be8:	9b0a      	ldr	r3, [sp, #40]	; 0x28
    2bea:	9a22      	ldr	r2, [sp, #136]	; 0x88
    2bec:	4293      	cmp	r3, r2
    2bee:	d909      	bls.n	2c04 <__vfprintf+0x364>
    2bf0:	68a3      	ldr	r3, [r4, #8]
    2bf2:	3b01      	subs	r3, #1
    2bf4:	60a3      	str	r3, [r4, #8]
    2bf6:	2b00      	cmp	r3, #0
    2bf8:	db0d      	blt.n	2c16 <__vfprintf+0x376>
    2bfa:	6823      	ldr	r3, [r4, #0]
    2bfc:	1c5a      	adds	r2, r3, #1
    2bfe:	6022      	str	r2, [r4, #0]
    2c00:	2220      	movs	r2, #32
    2c02:	701a      	strb	r2, [r3, #0]
    2c04:	2001      	movs	r0, #1
    2c06:	9a22      	ldr	r2, [sp, #136]	; 0x88
    2c08:	9b23      	ldr	r3, [sp, #140]	; 0x8c
    2c0a:	2100      	movs	r1, #0
    2c0c:	1812      	adds	r2, r2, r0
    2c0e:	414b      	adcs	r3, r1
    2c10:	9222      	str	r2, [sp, #136]	; 0x88
    2c12:	9323      	str	r3, [sp, #140]	; 0x8c
    2c14:	e75c      	b.n	2ad0 <__vfprintf+0x230>
    2c16:	0021      	movs	r1, r4
    2c18:	2020      	movs	r0, #32
    2c1a:	f7ff fbb9 	bl	2390 <__flsbuf>
    2c1e:	e7f1      	b.n	2c04 <__vfprintf+0x364>
    2c20:	9b07      	ldr	r3, [sp, #28]
    2c22:	3b01      	subs	r3, #1
    2c24:	9307      	str	r3, [sp, #28]
    2c26:	e75d      	b.n	2ae4 <__vfprintf+0x244>
    2c28:	9b08      	ldr	r3, [sp, #32]
    2c2a:	1d1f      	adds	r7, r3, #4
    2c2c:	066b      	lsls	r3, r5, #25
    2c2e:	d506      	bpl.n	2c3e <__vfprintf+0x39e>
    2c30:	9b08      	ldr	r3, [sp, #32]
    2c32:	9a06      	ldr	r2, [sp, #24]
    2c34:	681b      	ldr	r3, [r3, #0]
    2c36:	601a      	str	r2, [r3, #0]
    2c38:	17d2      	asrs	r2, r2, #31
    2c3a:	605a      	str	r2, [r3, #4]
    2c3c:	e753      	b.n	2ae6 <__vfprintf+0x246>
    2c3e:	06ab      	lsls	r3, r5, #26
    2c40:	d504      	bpl.n	2c4c <__vfprintf+0x3ac>
    2c42:	9b08      	ldr	r3, [sp, #32]
    2c44:	9a06      	ldr	r2, [sp, #24]
    2c46:	681b      	ldr	r3, [r3, #0]
    2c48:	601a      	str	r2, [r3, #0]
    2c4a:	e74c      	b.n	2ae6 <__vfprintf+0x246>
    2c4c:	05eb      	lsls	r3, r5, #23
    2c4e:	d504      	bpl.n	2c5a <__vfprintf+0x3ba>
    2c50:	9b08      	ldr	r3, [sp, #32]
    2c52:	9a06      	ldr	r2, [sp, #24]
    2c54:	681b      	ldr	r3, [r3, #0]
    2c56:	701a      	strb	r2, [r3, #0]
    2c58:	e745      	b.n	2ae6 <__vfprintf+0x246>
    2c5a:	062b      	lsls	r3, r5, #24
    2c5c:	d5f1      	bpl.n	2c42 <__vfprintf+0x3a2>
    2c5e:	9b08      	ldr	r3, [sp, #32]
    2c60:	9a06      	ldr	r2, [sp, #24]
    2c62:	681b      	ldr	r3, [r3, #0]
    2c64:	801a      	strh	r2, [r3, #0]
    2c66:	e73e      	b.n	2ae6 <__vfprintf+0x246>
    2c68:	9f08      	ldr	r7, [sp, #32]
    2c6a:	cf08      	ldmia	r7!, {r3}
    2c6c:	9338      	str	r3, [sp, #224]	; 0xe0
    2c6e:	2b00      	cmp	r3, #0
    2c70:	d101      	bne.n	2c76 <__vfprintf+0x3d6>
    2c72:	4bc7      	ldr	r3, [pc, #796]	; (2f90 <__vfprintf+0x6f0>)
    2c74:	9338      	str	r3, [sp, #224]	; 0xe0
    2c76:	9838      	ldr	r0, [sp, #224]	; 0xe0
    2c78:	f000 fd4e 	bl	3718 <strlen>
    2c7c:	0006      	movs	r6, r0
    2c7e:	06eb      	lsls	r3, r5, #27
    2c80:	d503      	bpl.n	2c8a <__vfprintf+0x3ea>
    2c82:	9b0c      	ldr	r3, [sp, #48]	; 0x30
    2c84:	4298      	cmp	r0, r3
    2c86:	dd00      	ble.n	2c8a <__vfprintf+0x3ea>
    2c88:	001e      	movs	r6, r3
    2c8a:	9b14      	ldr	r3, [sp, #80]	; 0x50
    2c8c:	002a      	movs	r2, r5
    2c8e:	1b9b      	subs	r3, r3, r6
    2c90:	9308      	str	r3, [sp, #32]
    2c92:	2301      	movs	r3, #1
    2c94:	401a      	ands	r2, r3
    2c96:	9214      	str	r2, [sp, #80]	; 0x50
    2c98:	421d      	tst	r5, r3
    2c9a:	d118      	bne.n	2cce <__vfprintf+0x42e>
    2c9c:	332f      	adds	r3, #47	; 0x2f
    2c9e:	930c      	str	r3, [sp, #48]	; 0x30
    2ca0:	05ab      	lsls	r3, r5, #22
    2ca2:	d401      	bmi.n	2ca8 <__vfprintf+0x408>
    2ca4:	2320      	movs	r3, #32
    2ca6:	930c      	str	r3, [sp, #48]	; 0x30
    2ca8:	9b06      	ldr	r3, [sp, #24]
    2caa:	9d08      	ldr	r5, [sp, #32]
    2cac:	931a      	str	r3, [sp, #104]	; 0x68
    2cae:	17db      	asrs	r3, r3, #31
    2cb0:	931b      	str	r3, [sp, #108]	; 0x6c
    2cb2:	3d01      	subs	r5, #1
    2cb4:	d52b      	bpl.n	2d0e <__vfprintf+0x46e>
    2cb6:	9b08      	ldr	r3, [sp, #32]
    2cb8:	9a08      	ldr	r2, [sp, #32]
    2cba:	43db      	mvns	r3, r3
    2cbc:	17db      	asrs	r3, r3, #31
    2cbe:	4013      	ands	r3, r2
    2cc0:	9a06      	ldr	r2, [sp, #24]
    2cc2:	18d2      	adds	r2, r2, r3
    2cc4:	9206      	str	r2, [sp, #24]
    2cc6:	9a08      	ldr	r2, [sp, #32]
    2cc8:	1e50      	subs	r0, r2, #1
    2cca:	1ac3      	subs	r3, r0, r3
    2ccc:	9308      	str	r3, [sp, #32]
    2cce:	2500      	movs	r5, #0
    2cd0:	9b06      	ldr	r3, [sp, #24]
    2cd2:	9320      	str	r3, [sp, #128]	; 0x80
    2cd4:	17db      	asrs	r3, r3, #31
    2cd6:	9321      	str	r3, [sp, #132]	; 0x84
    2cd8:	42b5      	cmp	r5, r6
    2cda:	db39      	blt.n	2d50 <__vfprintf+0x4b0>
    2cdc:	43f0      	mvns	r0, r6
    2cde:	9b06      	ldr	r3, [sp, #24]
    2ce0:	17c0      	asrs	r0, r0, #31
    2ce2:	4006      	ands	r6, r0
    2ce4:	199b      	adds	r3, r3, r6
    2ce6:	9306      	str	r3, [sp, #24]
    2ce8:	9b14      	ldr	r3, [sp, #80]	; 0x50
    2cea:	2b00      	cmp	r3, #0
    2cec:	d100      	bne.n	2cf0 <__vfprintf+0x450>
    2cee:	e6fa      	b.n	2ae6 <__vfprintf+0x246>
    2cf0:	9b06      	ldr	r3, [sp, #24]
    2cf2:	9d08      	ldr	r5, [sp, #32]
    2cf4:	9326      	str	r3, [sp, #152]	; 0x98
    2cf6:	17db      	asrs	r3, r3, #31
    2cf8:	9327      	str	r3, [sp, #156]	; 0x9c
    2cfa:	3d01      	subs	r5, #1
    2cfc:	d54c      	bpl.n	2d98 <__vfprintf+0x4f8>
    2cfe:	9b08      	ldr	r3, [sp, #32]
    2d00:	43d8      	mvns	r0, r3
    2d02:	17c0      	asrs	r0, r0, #31
    2d04:	4018      	ands	r0, r3
    2d06:	9b06      	ldr	r3, [sp, #24]
    2d08:	181b      	adds	r3, r3, r0
    2d0a:	9306      	str	r3, [sp, #24]
    2d0c:	e6eb      	b.n	2ae6 <__vfprintf+0x246>
    2d0e:	9b0b      	ldr	r3, [sp, #44]	; 0x2c
    2d10:	9a1b      	ldr	r2, [sp, #108]	; 0x6c
    2d12:	4293      	cmp	r3, r2
    2d14:	dc04      	bgt.n	2d20 <__vfprintf+0x480>
    2d16:	d10d      	bne.n	2d34 <__vfprintf+0x494>
    2d18:	9b0a      	ldr	r3, [sp, #40]	; 0x28
    2d1a:	9a1a      	ldr	r2, [sp, #104]	; 0x68
    2d1c:	4293      	cmp	r3, r2
    2d1e:	d909      	bls.n	2d34 <__vfprintf+0x494>
    2d20:	68a3      	ldr	r3, [r4, #8]
    2d22:	3b01      	subs	r3, #1
    2d24:	60a3      	str	r3, [r4, #8]
    2d26:	2b00      	cmp	r3, #0
    2d28:	db0d      	blt.n	2d46 <__vfprintf+0x4a6>
    2d2a:	6823      	ldr	r3, [r4, #0]
    2d2c:	1c5a      	adds	r2, r3, #1
    2d2e:	6022      	str	r2, [r4, #0]
    2d30:	9a0c      	ldr	r2, [sp, #48]	; 0x30
    2d32:	701a      	strb	r2, [r3, #0]
    2d34:	2001      	movs	r0, #1
    2d36:	9a1a      	ldr	r2, [sp, #104]	; 0x68
    2d38:	9b1b      	ldr	r3, [sp, #108]	; 0x6c
    2d3a:	2100      	movs	r1, #0
    2d3c:	1812      	adds	r2, r2, r0
    2d3e:	414b      	adcs	r3, r1
    2d40:	921a      	str	r2, [sp, #104]	; 0x68
    2d42:	931b      	str	r3, [sp, #108]	; 0x6c
    2d44:	e7b5      	b.n	2cb2 <__vfprintf+0x412>
    2d46:	0021      	movs	r1, r4
    2d48:	980c      	ldr	r0, [sp, #48]	; 0x30
    2d4a:	f7ff fb21 	bl	2390 <__flsbuf>
    2d4e:	e7f1      	b.n	2d34 <__vfprintf+0x494>
    2d50:	9b0b      	ldr	r3, [sp, #44]	; 0x2c
    2d52:	9a21      	ldr	r2, [sp, #132]	; 0x84
    2d54:	4293      	cmp	r3, r2
    2d56:	dc04      	bgt.n	2d62 <__vfprintf+0x4c2>
    2d58:	d10e      	bne.n	2d78 <__vfprintf+0x4d8>
    2d5a:	9b0a      	ldr	r3, [sp, #40]	; 0x28
    2d5c:	9a20      	ldr	r2, [sp, #128]	; 0x80
    2d5e:	4293      	cmp	r3, r2
    2d60:	d90a      	bls.n	2d78 <__vfprintf+0x4d8>
    2d62:	68a3      	ldr	r3, [r4, #8]
    2d64:	3b01      	subs	r3, #1
    2d66:	60a3      	str	r3, [r4, #8]
    2d68:	2b00      	cmp	r3, #0
    2d6a:	db0f      	blt.n	2d8c <__vfprintf+0x4ec>
    2d6c:	6823      	ldr	r3, [r4, #0]
    2d6e:	1c5a      	adds	r2, r3, #1
    2d70:	6022      	str	r2, [r4, #0]
    2d72:	9a38      	ldr	r2, [sp, #224]	; 0xe0
    2d74:	5d52      	ldrb	r2, [r2, r5]
    2d76:	701a      	strb	r2, [r3, #0]
    2d78:	2001      	movs	r0, #1
    2d7a:	9a20      	ldr	r2, [sp, #128]	; 0x80
    2d7c:	9b21      	ldr	r3, [sp, #132]	; 0x84
    2d7e:	2100      	movs	r1, #0
    2d80:	1812      	adds	r2, r2, r0
    2d82:	414b      	adcs	r3, r1
    2d84:	3501      	adds	r5, #1
    2d86:	9220      	str	r2, [sp, #128]	; 0x80
    2d88:	9321      	str	r3, [sp, #132]	; 0x84
    2d8a:	e7a5      	b.n	2cd8 <__vfprintf+0x438>
    2d8c:	9b38      	ldr	r3, [sp, #224]	; 0xe0
    2d8e:	0021      	movs	r1, r4
    2d90:	5d58      	ldrb	r0, [r3, r5]
    2d92:	f7ff fafd 	bl	2390 <__flsbuf>
    2d96:	e7ef      	b.n	2d78 <__vfprintf+0x4d8>
    2d98:	9b0b      	ldr	r3, [sp, #44]	; 0x2c
    2d9a:	9a27      	ldr	r2, [sp, #156]	; 0x9c
    2d9c:	4293      	cmp	r3, r2
    2d9e:	dc04      	bgt.n	2daa <__vfprintf+0x50a>
    2da0:	d10d      	bne.n	2dbe <__vfprintf+0x51e>
    2da2:	9b0a      	ldr	r3, [sp, #40]	; 0x28
    2da4:	9a26      	ldr	r2, [sp, #152]	; 0x98
    2da6:	4293      	cmp	r3, r2
    2da8:	d909      	bls.n	2dbe <__vfprintf+0x51e>
    2daa:	68a3      	ldr	r3, [r4, #8]
    2dac:	3b01      	subs	r3, #1
    2dae:	60a3      	str	r3, [r4, #8]
    2db0:	2b00      	cmp	r3, #0
    2db2:	db0d      	blt.n	2dd0 <__vfprintf+0x530>
    2db4:	6823      	ldr	r3, [r4, #0]
    2db6:	1c5a      	adds	r2, r3, #1
    2db8:	6022      	str	r2, [r4, #0]
    2dba:	2220      	movs	r2, #32
    2dbc:	701a      	strb	r2, [r3, #0]
    2dbe:	2001      	movs	r0, #1
    2dc0:	9a26      	ldr	r2, [sp, #152]	; 0x98
    2dc2:	9b27      	ldr	r3, [sp, #156]	; 0x9c
    2dc4:	2100      	movs	r1, #0
    2dc6:	1812      	adds	r2, r2, r0
    2dc8:	414b      	adcs	r3, r1
    2dca:	9226      	str	r2, [sp, #152]	; 0x98
    2dcc:	9327      	str	r3, [sp, #156]	; 0x9c
    2dce:	e794      	b.n	2cfa <__vfprintf+0x45a>
    2dd0:	0021      	movs	r1, r4
    2dd2:	2020      	movs	r0, #32
    2dd4:	f7ff fadc 	bl	2390 <__flsbuf>
    2dd8:	e7f1      	b.n	2dbe <__vfprintf+0x51e>
    2dda:	2340      	movs	r3, #64	; 0x40
    2ddc:	002a      	movs	r2, r5
    2dde:	9f08      	ldr	r7, [sp, #32]
    2de0:	401a      	ands	r2, r3
    2de2:	421d      	tst	r5, r3
    2de4:	d048      	beq.n	2e78 <__vfprintf+0x5d8>
    2de6:	2207      	movs	r2, #7
    2de8:	3707      	adds	r7, #7
    2dea:	4397      	bics	r7, r2
    2dec:	cf0c      	ldmia	r7!, {r2, r3}
    2dee:	9204      	str	r2, [sp, #16]
    2df0:	9305      	str	r3, [sp, #20]
    2df2:	2380      	movs	r3, #128	; 0x80
    2df4:	002a      	movs	r2, r5
    2df6:	401a      	ands	r2, r3
    2df8:	421d      	tst	r5, r3
    2dfa:	d041      	beq.n	2e80 <__vfprintf+0x5e0>
    2dfc:	466b      	mov	r3, sp
    2dfe:	8a1b      	ldrh	r3, [r3, #16]
    2e00:	9304      	str	r3, [sp, #16]
    2e02:	2300      	movs	r3, #0
    2e04:	9305      	str	r3, [sp, #20]
    2e06:	4b63      	ldr	r3, [pc, #396]	; (2f94 <__vfprintf+0x6f4>)
    2e08:	469c      	mov	ip, r3
    2e0a:	072b      	lsls	r3, r5, #28
    2e0c:	d401      	bmi.n	2e12 <__vfprintf+0x572>
    2e0e:	4b62      	ldr	r3, [pc, #392]	; (2f98 <__vfprintf+0x6f8>)
    2e10:	469c      	mov	ip, r3
    2e12:	4b62      	ldr	r3, [pc, #392]	; (2f9c <__vfprintf+0x6fc>)
    2e14:	9338      	str	r3, [sp, #224]	; 0xe0
    2e16:	06eb      	lsls	r3, r5, #27
    2e18:	d501      	bpl.n	2e1e <__vfprintf+0x57e>
    2e1a:	4961      	ldr	r1, [pc, #388]	; (2fa0 <__vfprintf+0x700>)
    2e1c:	400d      	ands	r5, r1
    2e1e:	9b06      	ldr	r3, [sp, #24]
    2e20:	980a      	ldr	r0, [sp, #40]	; 0x28
    2e22:	990b      	ldr	r1, [sp, #44]	; 0x2c
    2e24:	933e      	str	r3, [sp, #248]	; 0xf8
    2e26:	17db      	asrs	r3, r3, #31
    2e28:	933f      	str	r3, [sp, #252]	; 0xfc
    2e2a:	9a3e      	ldr	r2, [sp, #248]	; 0xf8
    2e2c:	9b3f      	ldr	r3, [sp, #252]	; 0xfc
    2e2e:	1a80      	subs	r0, r0, r2
    2e30:	4199      	sbcs	r1, r3
    2e32:	2201      	movs	r2, #1
    2e34:	9b0c      	ldr	r3, [sp, #48]	; 0x30
    2e36:	4252      	negs	r2, r2
    2e38:	9340      	str	r3, [sp, #256]	; 0x100
    2e3a:	4663      	mov	r3, ip
    2e3c:	9008      	str	r0, [sp, #32]
    2e3e:	9109      	str	r1, [sp, #36]	; 0x24
    2e40:	9242      	str	r2, [sp, #264]	; 0x108
    2e42:	9243      	str	r2, [sp, #268]	; 0x10c
    2e44:	2055      	movs	r0, #85	; 0x55
    2e46:	2200      	movs	r2, #0
    2e48:	9341      	str	r3, [sp, #260]	; 0x104
    2e4a:	a946      	add	r1, sp, #280	; 0x118
    2e4c:	5450      	strb	r0, [r2, r1]
    2e4e:	3201      	adds	r2, #1
    2e50:	2a20      	cmp	r2, #32
    2e52:	d1fb      	bne.n	2e4c <__vfprintf+0x5ac>
    2e54:	2282      	movs	r2, #130	; 0x82
    2e56:	00d2      	lsls	r2, r2, #3
    2e58:	4215      	tst	r5, r2
    2e5a:	d101      	bne.n	2e60 <__vfprintf+0x5c0>
    2e5c:	2201      	movs	r2, #1
    2e5e:	9240      	str	r2, [sp, #256]	; 0x100
    2e60:	2e6e      	cmp	r6, #110	; 0x6e
    2e62:	dd00      	ble.n	2e66 <__vfprintf+0x5c6>
    2e64:	e0ed      	b.n	3042 <__vfprintf+0x7a2>
    2e66:	2e47      	cmp	r6, #71	; 0x47
    2e68:	dd00      	ble.n	2e6c <__vfprintf+0x5cc>
    2e6a:	e11b      	b.n	30a4 <__vfprintf+0x804>
    2e6c:	2e40      	cmp	r6, #64	; 0x40
    2e6e:	dd00      	ble.n	2e72 <__vfprintf+0x5d2>
    2e70:	e10c      	b.n	308c <__vfprintf+0x7ec>
    2e72:	2300      	movs	r3, #0
    2e74:	930c      	str	r3, [sp, #48]	; 0x30
    2e76:	e11b      	b.n	30b0 <__vfprintf+0x810>
    2e78:	cf08      	ldmia	r7!, {r3}
    2e7a:	9205      	str	r2, [sp, #20]
    2e7c:	9304      	str	r3, [sp, #16]
    2e7e:	e7b8      	b.n	2df2 <__vfprintf+0x552>
    2e80:	05eb      	lsls	r3, r5, #23
    2e82:	d5c0      	bpl.n	2e06 <__vfprintf+0x566>
    2e84:	466b      	mov	r3, sp
    2e86:	7c1b      	ldrb	r3, [r3, #16]
    2e88:	9205      	str	r2, [sp, #20]
    2e8a:	9304      	str	r3, [sp, #16]
    2e8c:	e7bb      	b.n	2e06 <__vfprintf+0x566>
    2e8e:	2340      	movs	r3, #64	; 0x40
    2e90:	002a      	movs	r2, r5
    2e92:	9f08      	ldr	r7, [sp, #32]
    2e94:	401a      	ands	r2, r3
    2e96:	421d      	tst	r5, r3
    2e98:	d017      	beq.n	2eca <__vfprintf+0x62a>
    2e9a:	2207      	movs	r2, #7
    2e9c:	3707      	adds	r7, #7
    2e9e:	4397      	bics	r7, r2
    2ea0:	cf0c      	ldmia	r7!, {r2, r3}
    2ea2:	9204      	str	r2, [sp, #16]
    2ea4:	9305      	str	r3, [sp, #20]
    2ea6:	2380      	movs	r3, #128	; 0x80
    2ea8:	002a      	movs	r2, r5
    2eaa:	401a      	ands	r2, r3
    2eac:	421d      	tst	r5, r3
    2eae:	d010      	beq.n	2ed2 <__vfprintf+0x632>
    2eb0:	466b      	mov	r3, sp
    2eb2:	8a1b      	ldrh	r3, [r3, #16]
    2eb4:	9304      	str	r3, [sp, #16]
    2eb6:	2300      	movs	r3, #0
    2eb8:	9305      	str	r3, [sp, #20]
    2eba:	4b3a      	ldr	r3, [pc, #232]	; (2fa4 <__vfprintf+0x704>)
    2ebc:	469c      	mov	ip, r3
    2ebe:	072b      	lsls	r3, r5, #28
    2ec0:	d401      	bmi.n	2ec6 <__vfprintf+0x626>
    2ec2:	4b35      	ldr	r3, [pc, #212]	; (2f98 <__vfprintf+0x6f8>)
    2ec4:	469c      	mov	ip, r3
    2ec6:	4b38      	ldr	r3, [pc, #224]	; (2fa8 <__vfprintf+0x708>)
    2ec8:	e7a4      	b.n	2e14 <__vfprintf+0x574>
    2eca:	cf08      	ldmia	r7!, {r3}
    2ecc:	9205      	str	r2, [sp, #20]
    2ece:	9304      	str	r3, [sp, #16]
    2ed0:	e7e9      	b.n	2ea6 <__vfprintf+0x606>
    2ed2:	05eb      	lsls	r3, r5, #23
    2ed4:	d5f1      	bpl.n	2eba <__vfprintf+0x61a>
    2ed6:	466b      	mov	r3, sp
    2ed8:	7c1b      	ldrb	r3, [r3, #16]
    2eda:	9205      	str	r2, [sp, #20]
    2edc:	9304      	str	r3, [sp, #16]
    2ede:	e7ec      	b.n	2eba <__vfprintf+0x61a>
    2ee0:	9f08      	ldr	r7, [sp, #32]
    2ee2:	cf08      	ldmia	r7!, {r3}
    2ee4:	9304      	str	r3, [sp, #16]
    2ee6:	2300      	movs	r3, #0
    2ee8:	9305      	str	r3, [sp, #20]
    2eea:	4b2f      	ldr	r3, [pc, #188]	; (2fa8 <__vfprintf+0x708>)
    2eec:	9338      	str	r3, [sp, #224]	; 0xe0
    2eee:	4b2d      	ldr	r3, [pc, #180]	; (2fa4 <__vfprintf+0x704>)
    2ef0:	469c      	mov	ip, r3
    2ef2:	e794      	b.n	2e1e <__vfprintf+0x57e>
    2ef4:	2340      	movs	r3, #64	; 0x40
    2ef6:	002a      	movs	r2, r5
    2ef8:	9f08      	ldr	r7, [sp, #32]
    2efa:	401a      	ands	r2, r3
    2efc:	421d      	tst	r5, r3
    2efe:	d016      	beq.n	2f2e <__vfprintf+0x68e>
    2f00:	2207      	movs	r2, #7
    2f02:	3707      	adds	r7, #7
    2f04:	4397      	bics	r7, r2
    2f06:	cf0c      	ldmia	r7!, {r2, r3}
    2f08:	9204      	str	r2, [sp, #16]
    2f0a:	9305      	str	r3, [sp, #20]
    2f0c:	2380      	movs	r3, #128	; 0x80
    2f0e:	002a      	movs	r2, r5
    2f10:	401a      	ands	r2, r3
    2f12:	421d      	tst	r5, r3
    2f14:	d00f      	beq.n	2f36 <__vfprintf+0x696>
    2f16:	466b      	mov	r3, sp
    2f18:	8a1b      	ldrh	r3, [r3, #16]
    2f1a:	9304      	str	r3, [sp, #16]
    2f1c:	2300      	movs	r3, #0
    2f1e:	9305      	str	r3, [sp, #20]
    2f20:	4b22      	ldr	r3, [pc, #136]	; (2fac <__vfprintf+0x70c>)
    2f22:	469c      	mov	ip, r3
    2f24:	072b      	lsls	r3, r5, #28
    2f26:	d500      	bpl.n	2f2a <__vfprintf+0x68a>
    2f28:	e081      	b.n	302e <__vfprintf+0x78e>
    2f2a:	4b1b      	ldr	r3, [pc, #108]	; (2f98 <__vfprintf+0x6f8>)
    2f2c:	e063      	b.n	2ff6 <__vfprintf+0x756>
    2f2e:	cf08      	ldmia	r7!, {r3}
    2f30:	9205      	str	r2, [sp, #20]
    2f32:	9304      	str	r3, [sp, #16]
    2f34:	e7ea      	b.n	2f0c <__vfprintf+0x66c>
    2f36:	05eb      	lsls	r3, r5, #23
    2f38:	d5f2      	bpl.n	2f20 <__vfprintf+0x680>
    2f3a:	466b      	mov	r3, sp
    2f3c:	7c1b      	ldrb	r3, [r3, #16]
    2f3e:	9205      	str	r2, [sp, #20]
    2f40:	9304      	str	r3, [sp, #16]
    2f42:	e7ed      	b.n	2f20 <__vfprintf+0x680>
    2f44:	2340      	movs	r3, #64	; 0x40
    2f46:	002a      	movs	r2, r5
    2f48:	9f08      	ldr	r7, [sp, #32]
    2f4a:	401a      	ands	r2, r3
    2f4c:	421d      	tst	r5, r3
    2f4e:	d01b      	beq.n	2f88 <__vfprintf+0x6e8>
    2f50:	2207      	movs	r2, #7
    2f52:	3707      	adds	r7, #7
    2f54:	4397      	bics	r7, r2
    2f56:	cf0c      	ldmia	r7!, {r2, r3}
    2f58:	9204      	str	r2, [sp, #16]
    2f5a:	9305      	str	r3, [sp, #20]
    2f5c:	2380      	movs	r3, #128	; 0x80
    2f5e:	002a      	movs	r2, r5
    2f60:	401a      	ands	r2, r3
    2f62:	421d      	tst	r5, r3
    2f64:	d024      	beq.n	2fb0 <__vfprintf+0x710>
    2f66:	466b      	mov	r3, sp
    2f68:	8a1b      	ldrh	r3, [r3, #16]
    2f6a:	9304      	str	r3, [sp, #16]
    2f6c:	2300      	movs	r3, #0
    2f6e:	9305      	str	r3, [sp, #20]
    2f70:	2110      	movs	r1, #16
    2f72:	002b      	movs	r3, r5
    2f74:	4a08      	ldr	r2, [pc, #32]	; (2f98 <__vfprintf+0x6f8>)
    2f76:	400b      	ands	r3, r1
    2f78:	420d      	tst	r5, r1
    2f7a:	d002      	beq.n	2f82 <__vfprintf+0x6e2>
    2f7c:	4b08      	ldr	r3, [pc, #32]	; (2fa0 <__vfprintf+0x700>)
    2f7e:	401d      	ands	r5, r3
    2f80:	2300      	movs	r3, #0
    2f82:	4694      	mov	ip, r2
    2f84:	9338      	str	r3, [sp, #224]	; 0xe0
    2f86:	e74a      	b.n	2e1e <__vfprintf+0x57e>
    2f88:	cf08      	ldmia	r7!, {r3}
    2f8a:	9205      	str	r2, [sp, #20]
    2f8c:	9304      	str	r3, [sp, #16]
    2f8e:	e7e5      	b.n	2f5c <__vfprintf+0x6bc>
    2f90:	00004f6d 	.word	0x00004f6d
    2f94:	00004f74 	.word	0x00004f74
    2f98:	00004f68 	.word	0x00004f68
    2f9c:	00004f80 	.word	0x00004f80
    2fa0:	fffffdff 	.word	0xfffffdff
    2fa4:	00004f77 	.word	0x00004f77
    2fa8:	00004f91 	.word	0x00004f91
    2fac:	00004f7a 	.word	0x00004f7a
    2fb0:	05eb      	lsls	r3, r5, #23
    2fb2:	d5dd      	bpl.n	2f70 <__vfprintf+0x6d0>
    2fb4:	466b      	mov	r3, sp
    2fb6:	7c1b      	ldrb	r3, [r3, #16]
    2fb8:	9205      	str	r2, [sp, #20]
    2fba:	9304      	str	r3, [sp, #16]
    2fbc:	e7d8      	b.n	2f70 <__vfprintf+0x6d0>
    2fbe:	9f08      	ldr	r7, [sp, #32]
    2fc0:	066b      	lsls	r3, r5, #25
    2fc2:	d51a      	bpl.n	2ffa <__vfprintf+0x75a>
    2fc4:	2207      	movs	r2, #7
    2fc6:	3707      	adds	r7, #7
    2fc8:	4397      	bics	r7, r2
    2fca:	cf0c      	ldmia	r7!, {r2, r3}
    2fcc:	920e      	str	r2, [sp, #56]	; 0x38
    2fce:	930f      	str	r3, [sp, #60]	; 0x3c
    2fd0:	062b      	lsls	r3, r5, #24
    2fd2:	d517      	bpl.n	3004 <__vfprintf+0x764>
    2fd4:	466b      	mov	r3, sp
    2fd6:	2238      	movs	r2, #56	; 0x38
    2fd8:	5e9b      	ldrsh	r3, [r3, r2]
    2fda:	930e      	str	r3, [sp, #56]	; 0x38
    2fdc:	17db      	asrs	r3, r3, #31
    2fde:	930f      	str	r3, [sp, #60]	; 0x3c
    2fe0:	9b0f      	ldr	r3, [sp, #60]	; 0x3c
    2fe2:	2b00      	cmp	r3, #0
    2fe4:	da16      	bge.n	3014 <__vfprintf+0x774>
    2fe6:	980e      	ldr	r0, [sp, #56]	; 0x38
    2fe8:	990f      	ldr	r1, [sp, #60]	; 0x3c
    2fea:	2300      	movs	r3, #0
    2fec:	4242      	negs	r2, r0
    2fee:	418b      	sbcs	r3, r1
    2ff0:	9204      	str	r2, [sp, #16]
    2ff2:	9305      	str	r3, [sp, #20]
    2ff4:	4bc6      	ldr	r3, [pc, #792]	; (3310 <__vfprintf+0xa70>)
    2ff6:	469c      	mov	ip, r3
    2ff8:	e019      	b.n	302e <__vfprintf+0x78e>
    2ffa:	cf08      	ldmia	r7!, {r3}
    2ffc:	930e      	str	r3, [sp, #56]	; 0x38
    2ffe:	17db      	asrs	r3, r3, #31
    3000:	930f      	str	r3, [sp, #60]	; 0x3c
    3002:	e7e5      	b.n	2fd0 <__vfprintf+0x730>
    3004:	05eb      	lsls	r3, r5, #23
    3006:	d5eb      	bpl.n	2fe0 <__vfprintf+0x740>
    3008:	466b      	mov	r3, sp
    300a:	2238      	movs	r2, #56	; 0x38
    300c:	189b      	adds	r3, r3, r2
    300e:	781b      	ldrb	r3, [r3, #0]
    3010:	b25b      	sxtb	r3, r3
    3012:	e7e2      	b.n	2fda <__vfprintf+0x73a>
    3014:	9a0e      	ldr	r2, [sp, #56]	; 0x38
    3016:	9b0f      	ldr	r3, [sp, #60]	; 0x3c
    3018:	9204      	str	r2, [sp, #16]
    301a:	9305      	str	r3, [sp, #20]
    301c:	4bbd      	ldr	r3, [pc, #756]	; (3314 <__vfprintf+0xa74>)
    301e:	469c      	mov	ip, r3
    3020:	07ab      	lsls	r3, r5, #30
    3022:	d404      	bmi.n	302e <__vfprintf+0x78e>
    3024:	4bbc      	ldr	r3, [pc, #752]	; (3318 <__vfprintf+0xa78>)
    3026:	469c      	mov	ip, r3
    3028:	076b      	lsls	r3, r5, #29
    302a:	d400      	bmi.n	302e <__vfprintf+0x78e>
    302c:	e77d      	b.n	2f2a <__vfprintf+0x68a>
    302e:	2300      	movs	r3, #0
    3030:	e6f0      	b.n	2e14 <__vfprintf+0x574>
    3032:	2310      	movs	r3, #16
    3034:	421d      	tst	r5, r3
    3036:	d000      	beq.n	303a <__vfprintf+0x79a>
    3038:	e591      	b.n	2b5e <__vfprintf+0x2be>
    303a:	431d      	orrs	r5, r3
    303c:	3b03      	subs	r3, #3
    303e:	930c      	str	r3, [sp, #48]	; 0x30
    3040:	e58d      	b.n	2b5e <__vfprintf+0x2be>
    3042:	0030      	movs	r0, r6
    3044:	386f      	subs	r0, #111	; 0x6f
    3046:	2809      	cmp	r0, #9
    3048:	d900      	bls.n	304c <__vfprintf+0x7ac>
    304a:	e712      	b.n	2e72 <__vfprintf+0x5d2>
    304c:	f001 f888 	bl	4160 <__gnu_thumb1_case_shi>
    3050:	00b200cc 	.word	0x00b200cc
    3054:	ff11ff11 	.word	0xff11ff11
    3058:	ff11ff11 	.word	0xff11ff11
    305c:	ff110147 	.word	0xff110147
    3060:	00b2ff11 	.word	0x00b2ff11
    3064:	f001 f87c 	bl	4160 <__gnu_thumb1_case_shi>
    3068:	ff0500a6 	.word	0xff0500a6
    306c:	ff05ff05 	.word	0xff05ff05
    3070:	ff05ff05 	.word	0xff05ff05
    3074:	ff05ff05 	.word	0xff05ff05
    3078:	013dff05 	.word	0x013dff05
    307c:	ff05ff05 	.word	0xff05ff05
    3080:	013d013b 	.word	0x013d013b
    3084:	013d013d 	.word	0x013d013d
    3088:	013bff05 	.word	0x013bff05
    308c:	0032      	movs	r2, r6
    308e:	2301      	movs	r3, #1
    3090:	3a41      	subs	r2, #65	; 0x41
    3092:	4093      	lsls	r3, r2
    3094:	2251      	movs	r2, #81	; 0x51
    3096:	0018      	movs	r0, r3
    3098:	4010      	ands	r0, r2
    309a:	4213      	tst	r3, r2
    309c:	d000      	beq.n	30a0 <__vfprintf+0x800>
    309e:	e120      	b.n	32e2 <__vfprintf+0xa42>
